
OpenBeacon.elf:     file format elf32-avr

Sections:
Idx Name          Size      VMA       LMA       File off  Algn
  0 .text         00001df2  00000000  00000000  000000b4  2**1
                  CONTENTS, ALLOC, LOAD, READONLY, CODE
  1 .data         00000024  00800060  00001df2  00001ea6  2**0
                  CONTENTS, ALLOC, LOAD, DATA
  2 .bss          000001a4  00800084  00800084  00001eca  2**0
                  ALLOC
  3 .eeprom       00000158  00810000  00810000  00001eca  2**0
                  CONTENTS, ALLOC, LOAD, DATA
  4 .stab         00000d74  00000000  00000000  00002024  2**2
                  CONTENTS, READONLY, DEBUGGING
  5 .stabstr      000001f6  00000000  00000000  00002d98  2**0
                  CONTENTS, READONLY, DEBUGGING

Disassembly of section .text:

00000000 <__vectors>:
       0:	61 c1       	rjmp	.+706    	; 0x2c4 <__ctors_end>
       2:	c0 c2       	rjmp	.+1408   	; 0x584 <__vector_1>
       4:	7a c1       	rjmp	.+756    	; 0x2fa <__bad_interrupt>
       6:	79 c1       	rjmp	.+754    	; 0x2fa <__bad_interrupt>
       8:	78 c1       	rjmp	.+752    	; 0x2fa <__bad_interrupt>
       a:	77 c1       	rjmp	.+750    	; 0x2fa <__bad_interrupt>
       c:	76 c1       	rjmp	.+748    	; 0x2fa <__bad_interrupt>
       e:	75 c1       	rjmp	.+746    	; 0x2fa <__bad_interrupt>
      10:	74 c1       	rjmp	.+744    	; 0x2fa <__bad_interrupt>
      12:	73 c1       	rjmp	.+742    	; 0x2fa <__bad_interrupt>
      14:	09 c7       	rjmp	.+3602   	; 0xe28 <__vector_10>
      16:	71 c1       	rjmp	.+738    	; 0x2fa <__bad_interrupt>
      18:	70 c1       	rjmp	.+736    	; 0x2fa <__bad_interrupt>
      1a:	6f c1       	rjmp	.+734    	; 0x2fa <__bad_interrupt>
      1c:	6e c1       	rjmp	.+732    	; 0x2fa <__bad_interrupt>
      1e:	67 c5       	rjmp	.+2766   	; 0xaee <usbFunctionSetup+0x28>
      20:	7a c5       	rjmp	.+2804   	; 0xb16 <usbFunctionSetup+0x50>
      22:	ed c5       	rjmp	.+3034   	; 0xbfe <usbFunctionSetup+0x138>
      24:	ef c5       	rjmp	.+3038   	; 0xc04 <usbFunctionSetup+0x13e>
      26:	fb c5       	rjmp	.+3062   	; 0xc1e <usbFunctionSetup+0x158>
      28:	08 c6       	rjmp	.+3088   	; 0xc3a <usbFunctionSetup+0x174>
      2a:	13 c6       	rjmp	.+3110   	; 0xc52 <usbFunctionSetup+0x18c>
      2c:	27 c6       	rjmp	.+3150   	; 0xc7c <usbFunctionSetup+0x1b6>
      2e:	45 c6       	rjmp	.+3210   	; 0xcba <usbFunctionSetup+0x1f4>
      30:	4e c6       	rjmp	.+3228   	; 0xcce <usbFunctionSetup+0x208>
      32:	74 c6       	rjmp	.+3304   	; 0xd1c <usbFunctionSetup+0x256>
      34:	76 c6       	rjmp	.+3308   	; 0xd22 <usbFunctionSetup+0x25c>
      36:	86 c6       	rjmp	.+3340   	; 0xd44 <usbFunctionSetup+0x27e>
      38:	91 c6       	rjmp	.+3362   	; 0xd5c <usbFunctionSetup+0x296>
      3a:	97 c6       	rjmp	.+3374   	; 0xd6a <usbFunctionSetup+0x2a4>
      3c:	99 c6       	rjmp	.+3378   	; 0xd70 <usbFunctionSetup+0x2aa>
      3e:	a4 c6       	rjmp	.+3400   	; 0xd88 <usbFunctionSetup+0x2c2>
      40:	b2 c6       	rjmp	.+3428   	; 0xda6 <usbFunctionSetup+0x2e0>

00000042 <usbDescriptorString0>:
      42:	04 03 09 04                                         ....

00000046 <usbDescriptorStringVendor>:
      46:	12 03 45 00 74 00 68 00 65 00 72 00 6b 00 69 00     ..E.t.h.e.r.k.i.
      56:	74 00                                               t.

00000058 <usbDescriptorStringDevice>:
      58:	16 03 4f 00 70 00 65 00 6e 00 42 00 65 00 61 00     ..O.p.e.n.B.e.a.
      68:	63 00 6f 00 6e 00                                   c.o.n.

0000006e <usbDescriptorDevice>:
      6e:	12 01 10 01 ff 00 00 08 c0 16 dc 05 00 01 01 02     ................
      7e:	00 01                                               ..

00000080 <usbDescriptorConfiguration>:
      80:	09 02 12 00 01 01 00 80 32 09 04 00 00 00 00 00     ........2.......
	...

00000092 <morsechar>:
      92:	ff 80 80 80 80 80 80 80 80 80 80 80 80 e0 80 94     ................
      a2:	fc 7c 3c 1c 0c 04 84 c4 e4 f4 80 80 80 8c 80 32     .|<............2
      b2:	80 60 88 a8 90 40 28 d0 08 20 78 b0 48 e0 a0 f0     .`...@(.. x.H...
      c2:	68 d8 50 10 c0 30 18 70 98 b8 c8 80 80 80 80 80     h.P..0.p........
      d2:	80 60 88 a8 90 40 28 d0 08 20 78 b0 48 e0 a0 f0     .`...@(.. x.H...
      e2:	68 d8 50 10 c0 30 18 70 98 b8 c8                    h.P..0.p...

000000ed <fontchar>:
      ed:	00 00 00 00 00 00 00 5f 00 00 00 07 00 07 00 14     ......._........
      fd:	7f 14 7f 14 24 2a 7f 2a 12 23 13 08 64 62 36 49     ....$*.*.#..db6I
     10d:	55 22 50 00 05 03 00 00 00 1c 22 41 00 00 41 22     U"P......."A..A"
     11d:	1c 00 08 2a 1c 2a 08 08 08 3e 08 08 00 50 30 00     ...*.*...>...P0.
     12d:	00 08 08 08 08 08 00 60 60 00 00 20 10 08 04 02     .......``.. ....
     13d:	3e 51 49 45 3e 00 42 7f 40 00 42 61 51 49 46 21     >QIE>.B.@.BaQIF!
     14d:	41 45 4b 31 18 14 12 7f 10 27 45 45 45 39 3c 4a     AEK1.....'EEE9<J
     15d:	49 49 30 01 71 09 05 03 36 49 49 49 36 06 49 49     II0.q...6III6.II
     16d:	29 1e 00 36 36 00 00 00 56 36 00 00 00 08 14 22     )..66...V6....."
     17d:	41 14 14 14 14 14 41 22 14 08 00 02 01 51 09 06     A.....A".....Q..
     18d:	32 49 79 41 3e 7e 11 11 11 7e 7f 49 49 49 36 3e     2IyA>~...~.III6>
     19d:	41 41 41 22 7f 41 41 22 1c 7f 49 49 49 41 7f 09     AAA".AA"..IIIA..
     1ad:	09 01 01 3e 41 41 51 32 7f 08 08 08 7f 00 41 7f     ...>AAQ2......A.
     1bd:	41 00 20 40 41 3f 01 7f 08 14 22 41 7f 40 40 40     A. @A?...."A.@@@
     1cd:	40 7f 02 04 02 7f 7f 04 08 10 7f 3e 41 41 41 3e     @..........>AAA>
     1dd:	7f 09 09 09 06 3e 41 51 21 5e 7f 09 19 29 46 46     .....>AQ!^...)FF
     1ed:	49 49 49 31 01 01 7f 01 01 3f 40 40 40 3f 1f 20     III1.....?@@@?. 
     1fd:	40 20 1f 7f 20 18 20 7f 63 14 08 14 63 03 04 78     @ .. . .c...c..x
     20d:	04 03 61 51 49 45 43 00 00 7f 41 41 02 04 08 10     ..aQIEC...AA....
     21d:	20 41 41 7f 00 00 04 02 01 02 04 40 40 40 40 40      AA........@@@@@
     22d:	00 01 02 04 00 20 54 54 54 78 7f 48 44 44 38 38     ..... TTTx.HDD88
     23d:	44 44 44 20 38 44 44 48 7f 38 54 54 54 18 08 7e     DDD 8DDH.8TTT..~
     24d:	09 01 02 08 14 54 54 3c 7f 08 04 04 78 00 44 7d     .....TT<....x.D}
     25d:	40 00 20 40 44 3d 00 00 7f 10 28 44 00 41 7f 40     @. @D=....(D.A.@
     26d:	00 7c 04 18 04 78 7c 08 04 04 78 38 44 44 44 38     .|...x|...x8DDD8
     27d:	7c 14 14 14 08 08 14 14 18 7c 7c 08 04 04 08 48     |........||....H
     28d:	54 54 54 20 04 3f 44 40 20 3c 40 40 20 7c 1c 20     TTT .?D@ <@@ |. 
     29d:	40 20 1c 3c 40 30 40 3c 44 28 10 28 44 0c 50 50     @ .<@0@<D(.(D.PP
     2ad:	50 3c 44 64 54 4c 44 00 08 36 41 00 00 00 7f 00     P<DdTLD..6A.....
     2bd:	00 00 41 36 08 00 00                                ..A6...

000002c4 <__ctors_end>:
     2c4:	11 24       	eor	r1, r1
     2c6:	1f be       	out	0x3f, r1	; 63
     2c8:	cf e5       	ldi	r28, 0x5F	; 95
     2ca:	d2 e0       	ldi	r29, 0x02	; 2
     2cc:	de bf       	out	0x3e, r29	; 62
     2ce:	cd bf       	out	0x3d, r28	; 61

000002d0 <__do_copy_data>:
     2d0:	10 e0       	ldi	r17, 0x00	; 0
     2d2:	a0 e6       	ldi	r26, 0x60	; 96
     2d4:	b0 e0       	ldi	r27, 0x00	; 0
     2d6:	e2 ef       	ldi	r30, 0xF2	; 242
     2d8:	fd e1       	ldi	r31, 0x1D	; 29
     2da:	02 c0       	rjmp	.+4      	; 0x2e0 <__do_copy_data+0x10>
     2dc:	05 90       	lpm	r0, Z+
     2de:	0d 92       	st	X+, r0
     2e0:	a4 38       	cpi	r26, 0x84	; 132
     2e2:	b1 07       	cpc	r27, r17
     2e4:	d9 f7       	brne	.-10     	; 0x2dc <__do_copy_data+0xc>

000002e6 <__do_clear_bss>:
     2e6:	12 e0       	ldi	r17, 0x02	; 2
     2e8:	a4 e8       	ldi	r26, 0x84	; 132
     2ea:	b0 e0       	ldi	r27, 0x00	; 0
     2ec:	01 c0       	rjmp	.+2      	; 0x2f0 <.do_clear_bss_start>

000002ee <.do_clear_bss_loop>:
     2ee:	1d 92       	st	X+, r1

000002f0 <.do_clear_bss_start>:
     2f0:	a8 32       	cpi	r26, 0x28	; 40
     2f2:	b1 07       	cpc	r27, r17
     2f4:	e1 f7       	brne	.-8      	; 0x2ee <.do_clear_bss_loop>
     2f6:	ce d5       	rcall	.+2972   	; 0xe94 <main>
     2f8:	7a cd       	rjmp	.-1292   	; 0xfffffdee <__eeprom_end+0xff7efc96>

000002fa <__bad_interrupt>:
     2fa:	82 ce       	rjmp	.-764    	; 0x0 <__vectors>

000002fc <usbPoll>:
     2fc:	1f 93       	push	r17
     2fe:	cf 93       	push	r28
     300:	df 93       	push	r29
     302:	60 91 ee 01 	lds	r22, 0x01EE
     306:	63 50       	subi	r22, 0x03	; 3
     308:	67 fd       	sbrc	r22, 7
     30a:	9f c0       	rjmp	.+318    	; 0x44a <usbPoll+0x14e>
     30c:	80 91 eb 01 	lds	r24, 0x01EB
     310:	cc e0       	ldi	r28, 0x0C	; 12
     312:	d0 e0       	ldi	r29, 0x00	; 0
     314:	c8 1b       	sub	r28, r24
     316:	d1 09       	sbc	r29, r1
     318:	ce 50       	subi	r28, 0x0E	; 14
     31a:	de 4f       	sbci	r29, 0xFE	; 254
     31c:	80 91 ea 01 	lds	r24, 0x01EA
     320:	8d 32       	cpi	r24, 0x2D	; 45
     322:	09 f0       	breq	.+2      	; 0x326 <usbPoll+0x2a>
     324:	80 c0       	rjmp	.+256    	; 0x426 <usbPoll+0x12a>
     326:	68 30       	cpi	r22, 0x08	; 8
     328:	09 f0       	breq	.+2      	; 0x32c <usbPoll+0x30>
     32a:	8d c0       	rjmp	.+282    	; 0x446 <usbPoll+0x14a>
     32c:	83 ec       	ldi	r24, 0xC3	; 195
     32e:	80 93 de 01 	sts	0x01DE, r24
     332:	8a e5       	ldi	r24, 0x5A	; 90
     334:	80 93 60 00 	sts	0x0060, r24
     338:	10 92 84 00 	sts	0x0084, r1
     33c:	88 81       	ld	r24, Y
     33e:	80 76       	andi	r24, 0x60	; 96
     340:	31 f0       	breq	.+12     	; 0x34e <usbPoll+0x52>
     342:	ce 01       	movw	r24, r28
     344:	c0 d3       	rcall	.+1920   	; 0xac6 <usbFunctionSetup>
     346:	8f 3f       	cpi	r24, 0xFF	; 255
     348:	09 f4       	brne	.+2      	; 0x34c <usbPoll+0x50>
     34a:	5c c0       	rjmp	.+184    	; 0x404 <usbPoll+0x108>
     34c:	62 c0       	rjmp	.+196    	; 0x412 <usbPoll+0x116>
     34e:	9a 81       	ldd	r25, Y+2	; 0x02
     350:	10 92 e7 01 	sts	0x01E7, r1
     354:	89 81       	ldd	r24, Y+1	; 0x01
     356:	88 23       	and	r24, r24
     358:	31 f4       	brne	.+12     	; 0x366 <usbPoll+0x6a>
     35a:	10 92 e8 01 	sts	0x01E8, r1
     35e:	27 ee       	ldi	r18, 0xE7	; 231
     360:	31 e0       	ldi	r19, 0x01	; 1
     362:	82 e0       	ldi	r24, 0x02	; 2
     364:	4a c0       	rjmp	.+148    	; 0x3fa <usbPoll+0xfe>
     366:	85 30       	cpi	r24, 0x05	; 5
     368:	19 f4       	brne	.+6      	; 0x370 <usbPoll+0x74>
     36a:	90 93 ef 01 	sts	0x01EF, r25
     36e:	3b c0       	rjmp	.+118    	; 0x3e6 <usbPoll+0xea>
     370:	86 30       	cpi	r24, 0x06	; 6
     372:	81 f5       	brne	.+96     	; 0x3d4 <usbPoll+0xd8>
     374:	8b 81       	ldd	r24, Y+3	; 0x03
     376:	81 30       	cpi	r24, 0x01	; 1
     378:	19 f4       	brne	.+6      	; 0x380 <usbPoll+0x84>
     37a:	8e e6       	ldi	r24, 0x6E	; 110
     37c:	90 e0       	ldi	r25, 0x00	; 0
     37e:	15 c0       	rjmp	.+42     	; 0x3aa <usbPoll+0xae>
     380:	82 30       	cpi	r24, 0x02	; 2
     382:	19 f4       	brne	.+6      	; 0x38a <usbPoll+0x8e>
     384:	80 e8       	ldi	r24, 0x80	; 128
     386:	90 e0       	ldi	r25, 0x00	; 0
     388:	10 c0       	rjmp	.+32     	; 0x3aa <usbPoll+0xae>
     38a:	83 30       	cpi	r24, 0x03	; 3
     38c:	f1 f4       	brne	.+60     	; 0x3ca <usbPoll+0xce>
     38e:	99 23       	and	r25, r25
     390:	41 f4       	brne	.+16     	; 0x3a2 <usbPoll+0xa6>
     392:	82 e4       	ldi	r24, 0x42	; 66
     394:	90 e0       	ldi	r25, 0x00	; 0
     396:	90 93 ed 01 	sts	0x01ED, r25
     39a:	80 93 ec 01 	sts	0x01EC, r24
     39e:	84 e0       	ldi	r24, 0x04	; 4
     3a0:	15 c0       	rjmp	.+42     	; 0x3cc <usbPoll+0xd0>
     3a2:	91 30       	cpi	r25, 0x01	; 1
     3a4:	41 f4       	brne	.+16     	; 0x3b6 <usbPoll+0xba>
     3a6:	86 e4       	ldi	r24, 0x46	; 70
     3a8:	90 e0       	ldi	r25, 0x00	; 0
     3aa:	90 93 ed 01 	sts	0x01ED, r25
     3ae:	80 93 ec 01 	sts	0x01EC, r24
     3b2:	82 e1       	ldi	r24, 0x12	; 18
     3b4:	0b c0       	rjmp	.+22     	; 0x3cc <usbPoll+0xd0>
     3b6:	92 30       	cpi	r25, 0x02	; 2
     3b8:	41 f4       	brne	.+16     	; 0x3ca <usbPoll+0xce>
     3ba:	88 e5       	ldi	r24, 0x58	; 88
     3bc:	90 e0       	ldi	r25, 0x00	; 0
     3be:	90 93 ed 01 	sts	0x01ED, r25
     3c2:	80 93 ec 01 	sts	0x01EC, r24
     3c6:	86 e1       	ldi	r24, 0x16	; 22
     3c8:	01 c0       	rjmp	.+2      	; 0x3cc <usbPoll+0xd0>
     3ca:	80 e0       	ldi	r24, 0x00	; 0
     3cc:	90 e4       	ldi	r25, 0x40	; 64
     3ce:	90 93 84 00 	sts	0x0084, r25
     3d2:	1f c0       	rjmp	.+62     	; 0x412 <usbPoll+0x116>
     3d4:	88 30       	cpi	r24, 0x08	; 8
     3d6:	59 f0       	breq	.+22     	; 0x3ee <usbPoll+0xf2>
     3d8:	89 30       	cpi	r24, 0x09	; 9
     3da:	19 f4       	brne	.+6      	; 0x3e2 <usbPoll+0xe6>
     3dc:	90 93 f1 01 	sts	0x01F1, r25
     3e0:	02 c0       	rjmp	.+4      	; 0x3e6 <usbPoll+0xea>
     3e2:	8a 30       	cpi	r24, 0x0A	; 10
     3e4:	39 f0       	breq	.+14     	; 0x3f4 <usbPoll+0xf8>
     3e6:	27 ee       	ldi	r18, 0xE7	; 231
     3e8:	31 e0       	ldi	r19, 0x01	; 1
     3ea:	80 e0       	ldi	r24, 0x00	; 0
     3ec:	06 c0       	rjmp	.+12     	; 0x3fa <usbPoll+0xfe>
     3ee:	21 ef       	ldi	r18, 0xF1	; 241
     3f0:	31 e0       	ldi	r19, 0x01	; 1
     3f2:	02 c0       	rjmp	.+4      	; 0x3f8 <usbPoll+0xfc>
     3f4:	27 ee       	ldi	r18, 0xE7	; 231
     3f6:	31 e0       	ldi	r19, 0x01	; 1
     3f8:	81 e0       	ldi	r24, 0x01	; 1
     3fa:	30 93 ed 01 	sts	0x01ED, r19
     3fe:	20 93 ec 01 	sts	0x01EC, r18
     402:	07 c0       	rjmp	.+14     	; 0x412 <usbPoll+0x116>
     404:	98 81       	ld	r25, Y
     406:	97 fd       	sbrc	r25, 7
     408:	8e 81       	ldd	r24, Y+6	; 0x06
     40a:	90 e8       	ldi	r25, 0x80	; 128
     40c:	90 93 84 00 	sts	0x0084, r25
     410:	07 c0       	rjmp	.+14     	; 0x420 <usbPoll+0x124>
     412:	9f 81       	ldd	r25, Y+7	; 0x07
     414:	99 23       	and	r25, r25
     416:	21 f4       	brne	.+8      	; 0x420 <usbPoll+0x124>
     418:	9e 81       	ldd	r25, Y+6	; 0x06
     41a:	98 17       	cp	r25, r24
     41c:	08 f4       	brcc	.+2      	; 0x420 <usbPoll+0x124>
     41e:	89 2f       	mov	r24, r25
     420:	80 93 61 00 	sts	0x0061, r24
     424:	10 c0       	rjmp	.+32     	; 0x446 <usbPoll+0x14a>
     426:	80 91 84 00 	lds	r24, 0x0084
     42a:	87 ff       	sbrs	r24, 7
     42c:	0c c0       	rjmp	.+24     	; 0x446 <usbPoll+0x14a>
     42e:	ce 01       	movw	r24, r28
     430:	fa d1       	rcall	.+1012   	; 0x826 <usbFunctionWrite>
     432:	8f 3f       	cpi	r24, 0xFF	; 255
     434:	21 f4       	brne	.+8      	; 0x43e <usbPoll+0x142>
     436:	8e e1       	ldi	r24, 0x1E	; 30
     438:	80 93 60 00 	sts	0x0060, r24
     43c:	04 c0       	rjmp	.+8      	; 0x446 <usbPoll+0x14a>
     43e:	88 23       	and	r24, r24
     440:	11 f0       	breq	.+4      	; 0x446 <usbPoll+0x14a>
     442:	10 92 61 00 	sts	0x0061, r1
     446:	10 92 ee 01 	sts	0x01EE, r1
     44a:	80 91 60 00 	lds	r24, 0x0060
     44e:	84 ff       	sbrs	r24, 4
     450:	4c c0       	rjmp	.+152    	; 0x4ea <usbPoll+0x1ee>
     452:	80 91 61 00 	lds	r24, 0x0061
     456:	8f 3f       	cpi	r24, 0xFF	; 255
     458:	09 f4       	brne	.+2      	; 0x45c <usbPoll+0x160>
     45a:	47 c0       	rjmp	.+142    	; 0x4ea <usbPoll+0x1ee>
     45c:	18 2f       	mov	r17, r24
     45e:	89 30       	cpi	r24, 0x09	; 9
     460:	08 f0       	brcs	.+2      	; 0x464 <usbPoll+0x168>
     462:	18 e0       	ldi	r17, 0x08	; 8
     464:	81 1b       	sub	r24, r17
     466:	80 93 61 00 	sts	0x0061, r24
     46a:	80 91 de 01 	lds	r24, 0x01DE
     46e:	98 e8       	ldi	r25, 0x88	; 136
     470:	89 27       	eor	r24, r25
     472:	80 93 de 01 	sts	0x01DE, r24
     476:	11 23       	and	r17, r17
     478:	61 f1       	breq	.+88     	; 0x4d2 <usbPoll+0x1d6>
     47a:	80 91 ec 01 	lds	r24, 0x01EC
     47e:	90 91 ed 01 	lds	r25, 0x01ED
     482:	30 91 84 00 	lds	r19, 0x0084
     486:	21 2f       	mov	r18, r17
     488:	21 50       	subi	r18, 0x01	; 1
     48a:	36 ff       	sbrs	r19, 6
     48c:	0e c0       	rjmp	.+28     	; 0x4aa <usbPoll+0x1ae>
     48e:	30 e0       	ldi	r19, 0x00	; 0
     490:	a9 01       	movw	r20, r18
     492:	40 52       	subi	r20, 0x20	; 32
     494:	5e 4f       	sbci	r21, 0xFE	; 254
     496:	fc 01       	movw	r30, r24
     498:	af ed       	ldi	r26, 0xDF	; 223
     49a:	b1 e0       	ldi	r27, 0x01	; 1
     49c:	64 91       	lpm	r22, Z+
     49e:	6d 93       	st	X+, r22
     4a0:	31 96       	adiw	r30, 0x01	; 1
     4a2:	a4 17       	cp	r26, r20
     4a4:	b5 07       	cpc	r27, r21
     4a6:	d1 f7       	brne	.-12     	; 0x49c <usbPoll+0x1a0>
     4a8:	0c c0       	rjmp	.+24     	; 0x4c2 <usbPoll+0x1c6>
     4aa:	dc 01       	movw	r26, r24
     4ac:	30 e0       	ldi	r19, 0x00	; 0
     4ae:	a9 01       	movw	r20, r18
     4b0:	40 52       	subi	r20, 0x20	; 32
     4b2:	5e 4f       	sbci	r21, 0xFE	; 254
     4b4:	ef ed       	ldi	r30, 0xDF	; 223
     4b6:	f1 e0       	ldi	r31, 0x01	; 1
     4b8:	6d 91       	ld	r22, X+
     4ba:	61 93       	st	Z+, r22
     4bc:	e4 17       	cp	r30, r20
     4be:	f5 07       	cpc	r31, r21
     4c0:	d9 f7       	brne	.-10     	; 0x4b8 <usbPoll+0x1bc>
     4c2:	2f 5f       	subi	r18, 0xFF	; 255
     4c4:	3f 4f       	sbci	r19, 0xFF	; 255
     4c6:	28 0f       	add	r18, r24
     4c8:	39 1f       	adc	r19, r25
     4ca:	30 93 ed 01 	sts	0x01ED, r19
     4ce:	20 93 ec 01 	sts	0x01EC, r18
     4d2:	8f ed       	ldi	r24, 0xDF	; 223
     4d4:	91 e0       	ldi	r25, 0x01	; 1
     4d6:	61 2f       	mov	r22, r17
     4d8:	3e d0       	rcall	.+124    	; 0x556 <usbCrc16Append>
     4da:	1c 5f       	subi	r17, 0xFC	; 252
     4dc:	1c 30       	cpi	r17, 0x0C	; 12
     4de:	19 f0       	breq	.+6      	; 0x4e6 <usbPoll+0x1ea>
     4e0:	8f ef       	ldi	r24, 0xFF	; 255
     4e2:	80 93 61 00 	sts	0x0061, r24
     4e6:	10 93 60 00 	sts	0x0060, r17
     4ea:	84 e1       	ldi	r24, 0x14	; 20
     4ec:	96 b3       	in	r25, 0x16	; 22
     4ee:	95 70       	andi	r25, 0x05	; 5
     4f0:	31 f4       	brne	.+12     	; 0x4fe <usbPoll+0x202>
     4f2:	81 50       	subi	r24, 0x01	; 1
     4f4:	d9 f7       	brne	.-10     	; 0x4ec <usbPoll+0x1f0>
     4f6:	10 92 ef 01 	sts	0x01EF, r1
     4fa:	10 92 e9 01 	sts	0x01E9, r1
     4fe:	11 e0       	ldi	r17, 0x01	; 1
     500:	81 11       	cpse	r24, r1
     502:	10 e0       	ldi	r17, 0x00	; 0
     504:	80 91 85 00 	lds	r24, 0x0085
     508:	81 17       	cp	r24, r17
     50a:	29 f0       	breq	.+10     	; 0x516 <usbPoll+0x21a>
     50c:	11 23       	and	r17, r17
     50e:	09 f4       	brne	.+2      	; 0x512 <usbPoll+0x216>
     510:	e7 d1       	rcall	.+974    	; 0x8e0 <usbEventResetReady>
     512:	10 93 85 00 	sts	0x0085, r17
     516:	df 91       	pop	r29
     518:	cf 91       	pop	r28
     51a:	1f 91       	pop	r17
     51c:	08 95       	ret

0000051e <usbInit>:
     51e:	85 b7       	in	r24, 0x35	; 53
     520:	82 60       	ori	r24, 0x02	; 2
     522:	85 bf       	out	0x35, r24	; 53
     524:	8b b7       	in	r24, 0x3b	; 59
     526:	80 64       	ori	r24, 0x40	; 64
     528:	8b bf       	out	0x3b, r24	; 59
     52a:	08 95       	ret

0000052c <usbCrc16>:
     52c:	a8 2f       	mov	r26, r24
     52e:	b9 2f       	mov	r27, r25
     530:	80 e0       	ldi	r24, 0x00	; 0
     532:	90 e0       	ldi	r25, 0x00	; 0
     534:	41 e0       	ldi	r20, 0x01	; 1
     536:	50 ea       	ldi	r21, 0xA0	; 160
     538:	60 95       	com	r22
     53a:	30 e0       	ldi	r19, 0x00	; 0
     53c:	09 c0       	rjmp	.+18     	; 0x550 <usbCrcLoopEntry>

0000053e <usbCrcByteLoop>:
     53e:	2d 91       	ld	r18, X+
     540:	82 27       	eor	r24, r18

00000542 <usbCrcBitLoop>:
     542:	97 95       	ror	r25
     544:	87 95       	ror	r24
     546:	10 f0       	brcs	.+4      	; 0x54c <usbCrcNoXor>
     548:	84 27       	eor	r24, r20
     54a:	95 27       	eor	r25, r21

0000054c <usbCrcNoXor>:
     54c:	30 5e       	subi	r19, 0xE0	; 224
     54e:	c8 f3       	brcs	.-14     	; 0x542 <usbCrcBitLoop>

00000550 <usbCrcLoopEntry>:
     550:	6f 5f       	subi	r22, 0xFF	; 255
     552:	a8 f3       	brcs	.-22     	; 0x53e <usbCrcByteLoop>

00000554 <usbCrcReady>:
     554:	08 95       	ret

00000556 <usbCrc16Append>:
     556:	ea df       	rcall	.-44     	; 0x52c <usbCrc16>
     558:	8d 93       	st	X+, r24
     55a:	9d 93       	st	X+, r25
     55c:	08 95       	ret

0000055e <usbMeasureFrameLength>:
     55e:	a6 e0       	ldi	r26, 0x06	; 6
     560:	88 27       	eor	r24, r24
     562:	99 27       	eor	r25, r25

00000564 <usbMFTime16>:
     564:	aa 95       	dec	r26
     566:	69 f0       	breq	.+26     	; 0x582 <usbMFTimeout>

00000568 <usbMFWaitStrobe>:
     568:	01 97       	sbiw	r24, 0x01	; 1
     56a:	e1 f3       	breq	.-8      	; 0x564 <usbMFTime16>
     56c:	b0 99       	sbic	0x16, 0	; 22
     56e:	fc cf       	rjmp	.-8      	; 0x568 <usbMFWaitStrobe>

00000570 <usbMFWaitIdle>:
     570:	b0 9b       	sbis	0x16, 0	; 22
     572:	fe cf       	rjmp	.-4      	; 0x570 <usbMFWaitIdle>
     574:	81 e0       	ldi	r24, 0x01	; 1
     576:	99 27       	eor	r25, r25

00000578 <usbMFWaitLoop>:
     578:	a6 b3       	in	r26, 0x16	; 22
     57a:	01 96       	adiw	r24, 0x01	; 1
     57c:	11 f0       	breq	.+4      	; 0x582 <usbMFTimeout>
     57e:	a5 70       	andi	r26, 0x05	; 5
     580:	d9 f7       	brne	.-10     	; 0x578 <usbMFWaitLoop>

00000582 <usbMFTimeout>:
     582:	08 95       	ret

00000584 <__vector_1>:
     584:	cf 93       	push	r28
     586:	cf b7       	in	r28, 0x3f	; 63
     588:	cf 93       	push	r28

0000058a <waitForJ>:
     58a:	c3 95       	inc	r28
     58c:	b0 9b       	sbis	0x16, 0	; 22
     58e:	e9 f7       	brne	.-6      	; 0x58a <waitForJ>

00000590 <waitForK>:
     590:	b0 9b       	sbis	0x16, 0	; 22
     592:	0b c0       	rjmp	.+22     	; 0x5aa <foundK>
     594:	b0 9b       	sbis	0x16, 0	; 22
     596:	09 c0       	rjmp	.+18     	; 0x5aa <foundK>
     598:	b0 9b       	sbis	0x16, 0	; 22
     59a:	07 c0       	rjmp	.+14     	; 0x5aa <foundK>
     59c:	b0 9b       	sbis	0x16, 0	; 22
     59e:	05 c0       	rjmp	.+10     	; 0x5aa <foundK>
     5a0:	b0 9b       	sbis	0x16, 0	; 22
     5a2:	03 c0       	rjmp	.+6      	; 0x5aa <foundK>
     5a4:	b0 9b       	sbis	0x16, 0	; 22
     5a6:	01 c0       	rjmp	.+2      	; 0x5aa <foundK>
     5a8:	d3 c0       	rjmp	.+422    	; 0x750 <sofError>

000005aa <foundK>:
     5aa:	0f 92       	push	r0
     5ac:	df 93       	push	r29
     5ae:	c0 91 eb 01 	lds	r28, 0x01EB
     5b2:	dd 27       	eor	r29, r29
     5b4:	ce 50       	subi	r28, 0x0E	; 14
     5b6:	de 4f       	sbci	r29, 0xFE	; 254
     5b8:	01 2e       	mov	r0, r17
     5ba:	b0 9b       	sbis	0x16, 0	; 22
     5bc:	03 c0       	rjmp	.+6      	; 0x5c4 <haveTwoBitsK>
     5be:	df 91       	pop	r29
     5c0:	0f 90       	pop	r0
     5c2:	e6 cf       	rjmp	.-52     	; 0x590 <waitForK>

000005c4 <haveTwoBitsK>:
     5c4:	2f 93       	push	r18
     5c6:	0f 93       	push	r16
     5c8:	1f 93       	push	r17
     5ca:	4f 93       	push	r20
     5cc:	2f ef       	ldi	r18, 0xFF	; 255
     5ce:	4f 6f       	ori	r20, 0xFF	; 255
     5d0:	06 b3       	in	r16, 0x16	; 22
     5d2:	00 fb       	bst	r16, 0
     5d4:	20 f9       	bld	r18, 0
     5d6:	5f 93       	push	r21
     5d8:	3f 93       	push	r19
     5da:	50 e0       	ldi	r21, 0x00	; 0
     5dc:	3b e0       	ldi	r19, 0x0B	; 11
     5de:	65 c0       	rjmp	.+202    	; 0x6aa <rxbit1>

000005e0 <continueWithBit5>:
     5e0:	16 b3       	in	r17, 0x16	; 22
     5e2:	01 26       	eor	r0, r17
     5e4:	50 29       	or	r21, r0
     5e6:	50 fd       	sbrc	r21, 0
     5e8:	c8 95       	lpm
     5ea:	56 b3       	in	r21, 0x16	; 22
     5ec:	01 27       	eor	r16, r17
     5ee:	00 fb       	bst	r16, 0
     5f0:	25 f9       	bld	r18, 5
     5f2:	2f 73       	andi	r18, 0x3F	; 63
     5f4:	06 b3       	in	r16, 0x16	; 22
     5f6:	b1 f0       	breq	.+44     	; 0x624 <unstuff5>
     5f8:	50 27       	eor	r21, r16
     5fa:	10 27       	eor	r17, r16
     5fc:	10 fb       	bst	r17, 0
     5fe:	26 f9       	bld	r18, 6

00000600 <didUnstuff6>:
     600:	06 b2       	in	r0, 0x16	; 22
     602:	22 30       	cpi	r18, 0x02	; 2
     604:	f0 f0       	brcs	.+60     	; 0x642 <unstuff6>

00000606 <didUnstuff5>:
     606:	00 c0       	rjmp	.+0      	; 0x608 <didUnstuff5+0x2>
     608:	16 b3       	in	r17, 0x16	; 22
     60a:	01 27       	eor	r16, r17
     60c:	00 fb       	bst	r16, 0
     60e:	27 f9       	bld	r18, 7

00000610 <didUnstuff7>:
     610:	01 26       	eor	r0, r17
     612:	50 29       	or	r21, r0
     614:	06 b2       	in	r0, 0x16	; 22
     616:	24 30       	cpi	r18, 0x04	; 4
     618:	e8 f5       	brcc	.+122    	; 0x694 <rxLoop>

0000061a <unstuff7>:
     61a:	4f 77       	andi	r20, 0x7F	; 127
     61c:	20 68       	ori	r18, 0x80	; 128
     61e:	16 b3       	in	r17, 0x16	; 22
     620:	00 00       	nop
     622:	f6 cf       	rjmp	.-20     	; 0x610 <didUnstuff7>

00000624 <unstuff5>:
     624:	50 27       	eor	r21, r16
     626:	4f 7d       	andi	r20, 0xDF	; 223
     628:	20 62       	ori	r18, 0x20	; 32
     62a:	06 b2       	in	r0, 0x16	; 22
     62c:	10 2f       	mov	r17, r16
     62e:	00 00       	nop
     630:	00 c0       	rjmp	.+0      	; 0x632 <unstuff5+0xe>
     632:	06 b3       	in	r16, 0x16	; 22
     634:	00 26       	eor	r0, r16
     636:	50 29       	or	r21, r0
     638:	10 27       	eor	r17, r16
     63a:	10 fb       	bst	r17, 0
     63c:	26 f9       	bld	r18, 6
     63e:	06 b2       	in	r0, 0x16	; 22
     640:	e2 cf       	rjmp	.-60     	; 0x606 <didUnstuff5>

00000642 <unstuff6>:
     642:	4f 7b       	andi	r20, 0xBF	; 191
     644:	06 b3       	in	r16, 0x16	; 22
     646:	20 64       	ori	r18, 0x40	; 64
     648:	00 c0       	rjmp	.+0      	; 0x64a <unstuff6+0x8>
     64a:	da cf       	rjmp	.-76     	; 0x600 <didUnstuff6>

0000064c <unstuff0>:
     64c:	01 26       	eor	r0, r17
     64e:	50 29       	or	r21, r0
     650:	15 70       	andi	r17, 0x05	; 5
     652:	06 b2       	in	r0, 0x16	; 22
     654:	69 f1       	breq	.+90     	; 0x6b0 <didUnstuff0>
     656:	4e 7f       	andi	r20, 0xFE	; 254
     658:	21 60       	ori	r18, 0x01	; 1
     65a:	01 2f       	mov	r16, r17
     65c:	16 b3       	in	r17, 0x16	; 22
     65e:	28 c0       	rjmp	.+80     	; 0x6b0 <didUnstuff0>

00000660 <unstuff1>:
     660:	00 26       	eor	r0, r16
     662:	50 29       	or	r21, r0
     664:	4d 7f       	andi	r20, 0xFD	; 253
     666:	06 b2       	in	r0, 0x16	; 22
     668:	22 60       	ori	r18, 0x02	; 2
     66a:	10 2f       	mov	r17, r16
     66c:	29 c0       	rjmp	.+82     	; 0x6c0 <didUnstuff1>

0000066e <unstuff2>:
     66e:	01 26       	eor	r0, r17
     670:	50 29       	or	r21, r0
     672:	4b 7f       	andi	r20, 0xFB	; 251
     674:	06 b2       	in	r0, 0x16	; 22
     676:	24 60       	ori	r18, 0x04	; 4
     678:	01 2f       	mov	r16, r17
     67a:	2d c0       	rjmp	.+90     	; 0x6d6 <didUnstuff2>

0000067c <unstuff3>:
     67c:	16 b3       	in	r17, 0x16	; 22
     67e:	01 26       	eor	r0, r17
     680:	50 29       	or	r21, r0
     682:	47 7f       	andi	r20, 0xF7	; 247
     684:	28 60       	ori	r18, 0x08	; 8
     686:	00 00       	nop
     688:	06 b2       	in	r0, 0x16	; 22
     68a:	2e c0       	rjmp	.+92     	; 0x6e8 <didUnstuff3>

0000068c <unstuff4>:
     68c:	4f 7e       	andi	r20, 0xEF	; 239
     68e:	06 b3       	in	r16, 0x16	; 22
     690:	20 61       	ori	r18, 0x10	; 16
     692:	30 c0       	rjmp	.+96     	; 0x6f4 <didUnstuff4>

00000694 <rxLoop>:
     694:	42 27       	eor	r20, r18
     696:	06 b3       	in	r16, 0x16	; 22
     698:	49 93       	st	Y+, r20
     69a:	00 26       	eor	r0, r16
     69c:	50 29       	or	r21, r0
     69e:	10 27       	eor	r17, r16
     6a0:	06 b2       	in	r0, 0x16	; 22
     6a2:	4f ef       	ldi	r20, 0xFF	; 255
     6a4:	10 fb       	bst	r17, 0
     6a6:	20 f9       	bld	r18, 0
     6a8:	29 7f       	andi	r18, 0xF9	; 249

000006aa <rxbit1>:
     6aa:	16 b3       	in	r17, 0x16	; 22
     6ac:	79 f2       	breq	.-98     	; 0x64c <unstuff0>
     6ae:	15 70       	andi	r17, 0x05	; 5

000006b0 <didUnstuff0>:
     6b0:	59 f1       	breq	.+86     	; 0x708 <se0>
     6b2:	01 26       	eor	r0, r17
     6b4:	50 29       	or	r21, r0
     6b6:	06 b2       	in	r0, 0x16	; 22
     6b8:	01 27       	eor	r16, r17
     6ba:	00 fb       	bst	r16, 0
     6bc:	21 f9       	bld	r18, 1
     6be:	23 7f       	andi	r18, 0xF3	; 243

000006c0 <didUnstuff1>:
     6c0:	06 b3       	in	r16, 0x16	; 22
     6c2:	71 f2       	breq	.-100    	; 0x660 <unstuff1>
     6c4:	00 26       	eor	r0, r16
     6c6:	50 29       	or	r21, r0
     6c8:	31 50       	subi	r19, 0x01	; 1
     6ca:	d0 f0       	brcs	.+52     	; 0x700 <overflow>
     6cc:	06 b2       	in	r0, 0x16	; 22
     6ce:	10 27       	eor	r17, r16
     6d0:	10 fb       	bst	r17, 0
     6d2:	22 f9       	bld	r18, 2
     6d4:	27 7e       	andi	r18, 0xE7	; 231

000006d6 <didUnstuff2>:
     6d6:	16 b3       	in	r17, 0x16	; 22
     6d8:	51 f2       	breq	.-108    	; 0x66e <unstuff2>
     6da:	01 26       	eor	r0, r17
     6dc:	50 29       	or	r21, r0
     6de:	01 27       	eor	r16, r17
     6e0:	00 fb       	bst	r16, 0
     6e2:	06 b2       	in	r0, 0x16	; 22
     6e4:	23 f9       	bld	r18, 3
     6e6:	2f 7c       	andi	r18, 0xCF	; 207

000006e8 <didUnstuff3>:
     6e8:	49 f2       	breq	.-110    	; 0x67c <unstuff3>
     6ea:	00 00       	nop
     6ec:	06 b3       	in	r16, 0x16	; 22
     6ee:	10 27       	eor	r17, r16
     6f0:	10 fb       	bst	r17, 0
     6f2:	24 f9       	bld	r18, 4

000006f4 <didUnstuff4>:
     6f4:	00 26       	eor	r0, r16
     6f6:	50 29       	or	r21, r0
     6f8:	06 b2       	in	r0, 0x16	; 22
     6fa:	2f 79       	andi	r18, 0x9F	; 159
     6fc:	39 f2       	breq	.-114    	; 0x68c <unstuff4>
     6fe:	70 cf       	rjmp	.-288    	; 0x5e0 <continueWithBit5>

00000700 <overflow>:
     700:	10 e4       	ldi	r17, 0x40	; 64
     702:	1a bf       	out	0x3a, r17	; 58

00000704 <ignorePacket>:
     704:	00 27       	eor	r16, r16
     706:	17 c0       	rjmp	.+46     	; 0x736 <handleSetupOrOut>

00000708 <se0>:
     708:	3b 50       	subi	r19, 0x0B	; 11
     70a:	31 95       	neg	r19
     70c:	c3 1b       	sub	r28, r19
     70e:	d0 40       	sbci	r29, 0x00	; 0
     710:	10 e4       	ldi	r17, 0x40	; 64
     712:	1a bf       	out	0x3a, r17	; 58
     714:	08 81       	ld	r16, Y
     716:	03 3c       	cpi	r16, 0xC3	; 195
     718:	f9 f0       	breq	.+62     	; 0x758 <handleData>
     71a:	0b 34       	cpi	r16, 0x4B	; 75
     71c:	e9 f0       	breq	.+58     	; 0x758 <handleData>
     71e:	20 91 e9 01 	lds	r18, 0x01E9
     722:	19 81       	ldd	r17, Y+1	; 0x01
     724:	11 0f       	add	r17, r17
     726:	12 13       	cpse	r17, r18
     728:	ed cf       	rjmp	.-38     	; 0x704 <ignorePacket>
     72a:	09 36       	cpi	r16, 0x69	; 105
     72c:	51 f1       	breq	.+84     	; 0x782 <handleIn>
     72e:	0d 32       	cpi	r16, 0x2D	; 45
     730:	11 f0       	breq	.+4      	; 0x736 <handleSetupOrOut>
     732:	01 3e       	cpi	r16, 0xE1	; 225
     734:	39 f7       	brne	.-50     	; 0x704 <ignorePacket>

00000736 <handleSetupOrOut>:
     736:	00 93 f0 01 	sts	0x01F0, r16

0000073a <doReturn>:
     73a:	3f 91       	pop	r19
     73c:	5f 91       	pop	r21
     73e:	4f 91       	pop	r20
     740:	1f 91       	pop	r17
     742:	0f 91       	pop	r16
     744:	2f 91       	pop	r18
     746:	df 91       	pop	r29
     748:	0f 90       	pop	r0
     74a:	ca b7       	in	r28, 0x3a	; 58
     74c:	c6 fd       	sbrc	r28, 6
     74e:	1d cf       	rjmp	.-454    	; 0x58a <waitForJ>

00000750 <sofError>:
     750:	cf 91       	pop	r28
     752:	cf bf       	out	0x3f, r28	; 63
     754:	cf 91       	pop	r28
     756:	18 95       	reti

00000758 <handleData>:
     758:	20 91 f0 01 	lds	r18, 0x01F0
     75c:	22 23       	and	r18, r18
     75e:	69 f3       	breq	.-38     	; 0x73a <doReturn>
     760:	10 91 ee 01 	lds	r17, 0x01EE
     764:	11 23       	and	r17, r17
     766:	21 f5       	brne	.+72     	; 0x7b0 <sendNakAndReti>
     768:	34 30       	cpi	r19, 0x04	; 4
     76a:	22 f1       	brmi	.+72     	; 0x7b4 <sendAckAndReti>
     76c:	30 93 ee 01 	sts	0x01EE, r19
     770:	20 93 ea 01 	sts	0x01EA, r18
     774:	10 91 eb 01 	lds	r17, 0x01EB
     778:	3b e0       	ldi	r19, 0x0B	; 11
     77a:	31 1b       	sub	r19, r17
     77c:	30 93 eb 01 	sts	0x01EB, r19
     780:	19 c0       	rjmp	.+50     	; 0x7b4 <sendAckAndReti>

00000782 <handleIn>:
     782:	00 91 ee 01 	lds	r16, 0x01EE
     786:	01 30       	cpi	r16, 0x01	; 1
     788:	9c f4       	brge	.+38     	; 0x7b0 <sendNakAndReti>
     78a:	0a e5       	ldi	r16, 0x5A	; 90
     78c:	30 91 60 00 	lds	r19, 0x0060
     790:	34 fd       	sbrc	r19, 4
     792:	11 c0       	rjmp	.+34     	; 0x7b6 <sendCntAndReti>
     794:	00 93 60 00 	sts	0x0060, r16
     798:	ce ed       	ldi	r28, 0xDE	; 222
     79a:	d1 e0       	ldi	r29, 0x01	; 1
     79c:	10 c0       	rjmp	.+32     	; 0x7be <usbSendAndReti>

0000079e <bitstuff7>:
     79e:	05 27       	eor	r16, r21
     7a0:	10 e0       	ldi	r17, 0x00	; 0
     7a2:	00 c0       	rjmp	.+0      	; 0x7a4 <bitstuff7+0x6>
     7a4:	21 c0       	rjmp	.+66     	; 0x7e8 <didStuff7>

000007a6 <bitstuffN>:
     7a6:	05 27       	eor	r16, r21
     7a8:	10 e0       	ldi	r17, 0x00	; 0
     7aa:	c8 95       	lpm
     7ac:	08 bb       	out	0x18, r16	; 24
     7ae:	14 c0       	rjmp	.+40     	; 0x7d8 <didStuffN>

000007b0 <sendNakAndReti>:
     7b0:	3a e5       	ldi	r19, 0x5A	; 90
     7b2:	01 c0       	rjmp	.+2      	; 0x7b6 <sendCntAndReti>

000007b4 <sendAckAndReti>:
     7b4:	32 ed       	ldi	r19, 0xD2	; 210

000007b6 <sendCntAndReti>:
     7b6:	03 2e       	mov	r0, r19
     7b8:	c0 e0       	ldi	r28, 0x00	; 0
     7ba:	d0 e0       	ldi	r29, 0x00	; 0
     7bc:	32 e0       	ldi	r19, 0x02	; 2

000007be <usbSendAndReti>:
     7be:	17 b3       	in	r17, 0x17	; 23
     7c0:	15 60       	ori	r17, 0x05	; 5
     7c2:	c0 9a       	sbi	0x18, 0	; 24
     7c4:	08 b3       	in	r16, 0x18	; 24
     7c6:	17 bb       	out	0x17, r17	; 23
     7c8:	55 e0       	ldi	r21, 0x05	; 5
     7ca:	20 e8       	ldi	r18, 0x80	; 128
     7cc:	4f ef       	ldi	r20, 0xFF	; 255

000007ce <bitloop>:
     7ce:	20 ff       	sbrs	r18, 0
     7d0:	05 27       	eor	r16, r21
     7d2:	08 bb       	out	0x18, r16	; 24
     7d4:	27 95       	ror	r18
     7d6:	17 95       	ror	r17

000007d8 <didStuffN>:
     7d8:	1c 3f       	cpi	r17, 0xFC	; 252
     7da:	28 f7       	brcc	.-54     	; 0x7a6 <bitstuffN>
     7dc:	00 00       	nop
     7de:	45 52       	subi	r20, 0x25	; 37
     7e0:	b0 f7       	brcc	.-20     	; 0x7ce <bitloop>
     7e2:	20 ff       	sbrs	r18, 0
     7e4:	05 27       	eor	r16, r21
     7e6:	27 95       	ror	r18

000007e8 <didStuff7>:
     7e8:	08 bb       	out	0x18, r16	; 24
     7ea:	17 95       	ror	r17
     7ec:	1c 3f       	cpi	r17, 0xFC	; 252
     7ee:	b8 f6       	brcc	.-82     	; 0x79e <bitstuff7>
     7f0:	29 91       	ld	r18, Y+
     7f2:	3a 95       	dec	r19
     7f4:	61 f7       	brne	.-40     	; 0x7ce <bitloop>
     7f6:	0a 7f       	andi	r16, 0xFA	; 250
     7f8:	10 91 ef 01 	lds	r17, 0x01EF
     7fc:	11 0f       	add	r17, r17
     7fe:	08 bb       	out	0x18, r16	; 24
     800:	c2 50       	subi	r28, 0x02	; 2
     802:	d0 40       	sbci	r29, 0x00	; 0
     804:	11 f0       	breq	.+4      	; 0x80a <skipAddrAssign>
     806:	10 93 e9 01 	sts	0x01E9, r17

0000080a <skipAddrAssign>:
     80a:	10 e4       	ldi	r17, 0x40	; 64
     80c:	1a bf       	out	0x3a, r17	; 58
     80e:	01 60       	ori	r16, 0x01	; 1
     810:	17 b3       	in	r17, 0x17	; 23
     812:	1a 7f       	andi	r17, 0xFA	; 250
     814:	40 2f       	mov	r20, r16
     816:	4a 7f       	andi	r20, 0xFA	; 250
     818:	54 e0       	ldi	r21, 0x04	; 4

0000081a <se0Delay>:
     81a:	5a 95       	dec	r21
     81c:	f1 f7       	brne	.-4      	; 0x81a <se0Delay>
     81e:	08 bb       	out	0x18, r16	; 24
     820:	17 bb       	out	0x17, r17	; 23
     822:	48 bb       	out	0x18, r20	; 24
     824:	8a cf       	rjmp	.-236    	; 0x73a <doReturn>

00000826 <usbFunctionWrite>:
     826:	20 91 d8 01 	lds	r18, 0x01D8
     82a:	26 17       	cp	r18, r22
     82c:	08 f4       	brcc	.+2      	; 0x830 <usbFunctionWrite+0xa>
     82e:	62 2f       	mov	r22, r18
     830:	26 1b       	sub	r18, r22
     832:	20 93 d8 01 	sts	0x01D8, r18
     836:	30 91 d9 01 	lds	r19, 0x01D9
     83a:	dc 01       	movw	r26, r24
     83c:	80 e0       	ldi	r24, 0x00	; 0
     83e:	08 c0       	rjmp	.+16     	; 0x850 <usbFunctionWrite+0x2a>
     840:	9d 91       	ld	r25, X+
     842:	e8 2f       	mov	r30, r24
     844:	e3 0f       	add	r30, r19
     846:	f0 e0       	ldi	r31, 0x00	; 0
     848:	ef 5c       	subi	r30, 0xCF	; 207
     84a:	fe 4f       	sbci	r31, 0xFE	; 254
     84c:	90 83       	st	Z, r25
     84e:	8f 5f       	subi	r24, 0xFF	; 255
     850:	86 17       	cp	r24, r22
     852:	b0 f3       	brcs	.-20     	; 0x840 <usbFunctionWrite+0x1a>
     854:	63 0f       	add	r22, r19
     856:	60 93 d9 01 	sts	0x01D9, r22
     85a:	22 23       	and	r18, r18
     85c:	d9 f5       	brne	.+118    	; 0x8d4 <usbFunctionWrite+0xae>
     85e:	80 91 13 02 	lds	r24, 0x0213
     862:	81 30       	cpi	r24, 0x01	; 1
     864:	61 f0       	breq	.+24     	; 0x87e <usbFunctionWrite+0x58>
     866:	81 30       	cpi	r24, 0x01	; 1
     868:	28 f0       	brcs	.+10     	; 0x874 <usbFunctionWrite+0x4e>
     86a:	82 30       	cpi	r24, 0x02	; 2
     86c:	79 f0       	breq	.+30     	; 0x88c <usbFunctionWrite+0x66>
     86e:	83 30       	cpi	r24, 0x03	; 3
     870:	79 f5       	brne	.+94     	; 0x8d0 <usbFunctionWrite+0xaa>
     872:	27 c0       	rjmp	.+78     	; 0x8c2 <usbFunctionWrite+0x9c>
     874:	81 e3       	ldi	r24, 0x31	; 49
     876:	91 e0       	ldi	r25, 0x01	; 1
     878:	65 e0       	ldi	r22, 0x05	; 5
     87a:	70 e0       	ldi	r23, 0x00	; 0
     87c:	04 c0       	rjmp	.+8      	; 0x886 <usbFunctionWrite+0x60>
     87e:	81 e3       	ldi	r24, 0x31	; 49
     880:	91 e0       	ldi	r25, 0x01	; 1
     882:	6e e2       	ldi	r22, 0x2E	; 46
     884:	70 e0       	ldi	r23, 0x00	; 0
     886:	48 e2       	ldi	r20, 0x28	; 40
     888:	50 e0       	ldi	r21, 0x00	; 0
     88a:	21 c0       	rjmp	.+66     	; 0x8ce <usbFunctionWrite+0xa8>
     88c:	80 e0       	ldi	r24, 0x00	; 0
     88e:	90 e0       	ldi	r25, 0x00	; 0
     890:	61 e3       	ldi	r22, 0x31	; 49
     892:	71 e0       	ldi	r23, 0x01	; 1
     894:	41 e0       	ldi	r20, 0x01	; 1
     896:	50 e0       	ldi	r21, 0x00	; 0
     898:	5a da       	rcall	.-2892   	; 0xfffffd4e <__eeprom_end+0xff7efbf6>
     89a:	80 e0       	ldi	r24, 0x00	; 0
     89c:	90 e0       	ldi	r25, 0x00	; 0
     89e:	3a da       	rcall	.-2956   	; 0xfffffd14 <__eeprom_end+0xff7efbbc>
     8a0:	81 30       	cpi	r24, 0x01	; 1
     8a2:	19 f0       	breq	.+6      	; 0x8aa <usbFunctionWrite+0x84>
     8a4:	82 30       	cpi	r24, 0x02	; 2
     8a6:	a1 f4       	brne	.+40     	; 0x8d0 <usbFunctionWrite+0xaa>
     8a8:	05 c0       	rjmp	.+10     	; 0x8b4 <usbFunctionWrite+0x8e>
     8aa:	82 e3       	ldi	r24, 0x32	; 50
     8ac:	91 e0       	ldi	r25, 0x01	; 1
     8ae:	6b ef       	ldi	r22, 0xFB	; 251
     8b0:	70 e0       	ldi	r23, 0x00	; 0
     8b2:	04 c0       	rjmp	.+8      	; 0x8bc <usbFunctionWrite+0x96>
     8b4:	82 e3       	ldi	r24, 0x32	; 50
     8b6:	91 e0       	ldi	r25, 0x01	; 1
     8b8:	62 e1       	ldi	r22, 0x12	; 18
     8ba:	71 e0       	ldi	r23, 0x01	; 1
     8bc:	46 e1       	ldi	r20, 0x16	; 22
     8be:	50 e0       	ldi	r21, 0x00	; 0
     8c0:	06 c0       	rjmp	.+12     	; 0x8ce <usbFunctionWrite+0xa8>
     8c2:	81 e3       	ldi	r24, 0x31	; 49
     8c4:	91 e0       	ldi	r25, 0x01	; 1
     8c6:	67 e5       	ldi	r22, 0x57	; 87
     8c8:	70 e0       	ldi	r23, 0x00	; 0
     8ca:	42 ea       	ldi	r20, 0xA2	; 162
     8cc:	50 e0       	ldi	r21, 0x00	; 0
     8ce:	75 da       	rcall	.-2838   	; 0xfffffdba <__eeprom_end+0xff7efc62>
     8d0:	10 92 1b 02 	sts	0x021B, r1
     8d4:	81 e0       	ldi	r24, 0x01	; 1
     8d6:	90 91 d8 01 	lds	r25, 0x01D8
     8da:	91 11       	cpse	r25, r1
     8dc:	80 e0       	ldi	r24, 0x00	; 0
     8de:	08 95       	ret

000008e0 <usbEventResetReady>:
     8e0:	df 92       	push	r13
     8e2:	ef 92       	push	r14
     8e4:	ff 92       	push	r15
     8e6:	0f 93       	push	r16
     8e8:	1f 93       	push	r17
     8ea:	cf 93       	push	r28
     8ec:	df 93       	push	r29
     8ee:	f8 94       	cli
     8f0:	c8 e0       	ldi	r28, 0x08	; 8
     8f2:	d0 e0       	ldi	r29, 0x00	; 0
     8f4:	ff 24       	eor	r15, r15
     8f6:	80 e8       	ldi	r24, 0x80	; 128
     8f8:	e8 2e       	mov	r14, r24
     8fa:	de 2c       	mov	r13, r14
     8fc:	df 0c       	add	r13, r15
     8fe:	d1 be       	out	0x31, r13	; 49
     900:	2e de       	rcall	.-932    	; 0x55e <usbMeasureFrameLength>
     902:	08 2f       	mov	r16, r24
     904:	19 2f       	mov	r17, r25
     906:	89 e0       	ldi	r24, 0x09	; 9
     908:	04 33       	cpi	r16, 0x34	; 52
     90a:	18 07       	cpc	r17, r24
     90c:	0c f4       	brge	.+2      	; 0x910 <usbEventResetReady+0x30>
     90e:	fd 2c       	mov	r15, r13
     910:	e6 94       	lsr	r14
     912:	21 97       	sbiw	r28, 0x01	; 1
     914:	91 f7       	brne	.-28     	; 0x8fa <usbEventResetReady+0x1a>
     916:	8f 2d       	mov	r24, r15
     918:	81 50       	subi	r24, 0x01	; 1
     91a:	81 bf       	out	0x31, r24	; 49
     91c:	cf 2d       	mov	r28, r15
     91e:	d0 e0       	ldi	r29, 0x00	; 0
     920:	21 96       	adiw	r28, 0x01	; 1
     922:	10 c0       	rjmp	.+32     	; 0x944 <usbEventResetReady+0x64>
     924:	1c de       	rcall	.-968    	; 0x55e <usbMeasureFrameLength>
     926:	84 53       	subi	r24, 0x34	; 52
     928:	99 40       	sbci	r25, 0x09	; 9
     92a:	97 ff       	sbrs	r25, 7
     92c:	03 c0       	rjmp	.+6      	; 0x934 <usbEventResetReady+0x54>
     92e:	90 95       	com	r25
     930:	81 95       	neg	r24
     932:	9f 4f       	sbci	r25, 0xFF	; 255
     934:	80 17       	cp	r24, r16
     936:	91 07       	cpc	r25, r17
     938:	14 f4       	brge	.+4      	; 0x93e <usbEventResetReady+0x5e>
     93a:	f1 b6       	in	r15, 0x31	; 49
     93c:	8c 01       	movw	r16, r24
     93e:	81 b7       	in	r24, 0x31	; 49
     940:	8f 5f       	subi	r24, 0xFF	; 255
     942:	81 bf       	out	0x31, r24	; 49
     944:	81 b7       	in	r24, 0x31	; 49
     946:	90 e0       	ldi	r25, 0x00	; 0
     948:	c8 17       	cp	r28, r24
     94a:	d9 07       	cpc	r29, r25
     94c:	5c f7       	brge	.-42     	; 0x924 <usbEventResetReady+0x44>
     94e:	f1 be       	out	0x31, r15	; 49
     950:	78 94       	sei
     952:	61 b7       	in	r22, 0x31	; 49
     954:	87 e5       	ldi	r24, 0x57	; 87
     956:	91 e0       	ldi	r25, 0x01	; 1
     958:	39 da       	rcall	.-2958   	; 0xfffffdcc <__eeprom_end+0xff7efc74>
     95a:	df 91       	pop	r29
     95c:	cf 91       	pop	r28
     95e:	1f 91       	pop	r17
     960:	0f 91       	pop	r16
     962:	ff 90       	pop	r15
     964:	ef 90       	pop	r14
     966:	df 90       	pop	r13
     968:	08 95       	ret

0000096a <set_wpm>:
     96a:	9b 01       	movw	r18, r22
     96c:	ac 01       	movw	r20, r24
     96e:	60 ec       	ldi	r22, 0xC0	; 192
     970:	77 e2       	ldi	r23, 0x27	; 39
     972:	89 e0       	ldi	r24, 0x09	; 9
     974:	90 e0       	ldi	r25, 0x00	; 0
     976:	ac d9       	rcall	.-3240   	; 0xfffffcd0 <__eeprom_end+0xff7efb78>
     978:	20 93 14 02 	sts	0x0214, r18
     97c:	30 93 15 02 	sts	0x0215, r19
     980:	40 93 16 02 	sts	0x0216, r20
     984:	50 93 17 02 	sts	0x0217, r21
     988:	08 95       	ret

0000098a <get_msg_delay>:
     98a:	8f 31       	cpi	r24, 0x1F	; 31
     98c:	08 f0       	brcs	.+2      	; 0x990 <get_msg_delay+0x6>
     98e:	8e e1       	ldi	r24, 0x1E	; 30
     990:	68 2f       	mov	r22, r24
     992:	70 e0       	ldi	r23, 0x00	; 0
     994:	80 e0       	ldi	r24, 0x00	; 0
     996:	90 e0       	ldi	r25, 0x00	; 0
     998:	2a e1       	ldi	r18, 0x1A	; 26
     99a:	35 e7       	ldi	r19, 0x75	; 117
     99c:	40 e0       	ldi	r20, 0x00	; 0
     99e:	50 e0       	ldi	r21, 0x00	; 0
     9a0:	6a d9       	rcall	.-3372   	; 0xfffffc76 <__eeprom_end+0xff7efb1e>
     9a2:	08 95       	ret

000009a4 <init_tx>:
     9a4:	ef 92       	push	r14
     9a6:	ff 92       	push	r15
     9a8:	0f 93       	push	r16
     9aa:	1f 93       	push	r17
     9ac:	cf 93       	push	r28
     9ae:	df 93       	push	r29
     9b0:	80 91 18 02 	lds	r24, 0x0218
     9b4:	ce e8       	ldi	r28, 0x8E	; 142
     9b6:	d0 e0       	ldi	r29, 0x00	; 0
     9b8:	8a 30       	cpi	r24, 0x0A	; 10
     9ba:	e9 f4       	brne	.+58     	; 0x9f6 <init_tx+0x52>
     9bc:	ce 01       	movw	r24, r28
     9be:	67 e5       	ldi	r22, 0x57	; 87
     9c0:	70 e0       	ldi	r23, 0x00	; 0
     9c2:	42 ea       	ldi	r20, 0xA2	; 162
     9c4:	50 e0       	ldi	r21, 0x00	; 0
     9c6:	dc d9       	rcall	.-3144   	; 0xfffffd80 <__eeprom_end+0xff7efc28>
     9c8:	d0 93 27 02 	sts	0x0227, r29
     9cc:	c0 93 26 02 	sts	0x0226, r28
     9d0:	10 92 8a 00 	sts	0x008A, r1
     9d4:	80 91 86 00 	lds	r24, 0x0086
     9d8:	90 91 87 00 	lds	r25, 0x0087
     9dc:	a0 91 88 00 	lds	r26, 0x0088
     9e0:	b0 91 89 00 	lds	r27, 0x0089
     9e4:	80 93 1f 02 	sts	0x021F, r24
     9e8:	90 93 20 02 	sts	0x0220, r25
     9ec:	a0 93 21 02 	sts	0x0221, r26
     9f0:	b0 93 22 02 	sts	0x0222, r27
     9f4:	5f c0       	rjmp	.+190    	; 0xab4 <init_tx+0x110>
     9f6:	ce 01       	movw	r24, r28
     9f8:	65 e0       	ldi	r22, 0x05	; 5
     9fa:	70 e0       	ldi	r23, 0x00	; 0
     9fc:	48 e2       	ldi	r20, 0x28	; 40
     9fe:	50 e0       	ldi	r21, 0x00	; 0
     a00:	bf d9       	rcall	.-3202   	; 0xfffffd80 <__eeprom_end+0xff7efc28>
     a02:	d0 93 27 02 	sts	0x0227, r29
     a06:	c0 93 26 02 	sts	0x0226, r28
     a0a:	10 92 8a 00 	sts	0x008A, r1
     a0e:	e0 90 86 00 	lds	r14, 0x0086
     a12:	f0 90 87 00 	lds	r15, 0x0087
     a16:	00 91 88 00 	lds	r16, 0x0088
     a1a:	10 91 89 00 	lds	r17, 0x0089
     a1e:	60 91 1e 02 	lds	r22, 0x021E
     a22:	6f 31       	cpi	r22, 0x1F	; 31
     a24:	08 f0       	brcs	.+2      	; 0xa28 <init_tx+0x84>
     a26:	6e e1       	ldi	r22, 0x1E	; 30
     a28:	70 e0       	ldi	r23, 0x00	; 0
     a2a:	80 e0       	ldi	r24, 0x00	; 0
     a2c:	90 e0       	ldi	r25, 0x00	; 0
     a2e:	2a e1       	ldi	r18, 0x1A	; 26
     a30:	35 e7       	ldi	r19, 0x75	; 117
     a32:	40 e0       	ldi	r20, 0x00	; 0
     a34:	50 e0       	ldi	r21, 0x00	; 0
     a36:	1f d9       	rcall	.-3522   	; 0xfffffc76 <__eeprom_end+0xff7efb1e>
     a38:	6e 0d       	add	r22, r14
     a3a:	7f 1d       	adc	r23, r15
     a3c:	80 1f       	adc	r24, r16
     a3e:	91 1f       	adc	r25, r17
     a40:	60 93 0a 02 	sts	0x020A, r22
     a44:	70 93 0b 02 	sts	0x020B, r23
     a48:	80 93 0c 02 	sts	0x020C, r24
     a4c:	90 93 0d 02 	sts	0x020D, r25
     a50:	10 92 8d 00 	sts	0x008D, r1
     a54:	10 92 8c 00 	sts	0x008C, r1
     a58:	e0 91 18 02 	lds	r30, 0x0218
     a5c:	e8 30       	cpi	r30, 0x08	; 8
     a5e:	21 f4       	brne	.+8      	; 0xa68 <init_tx+0xc4>
     a60:	81 e0       	ldi	r24, 0x01	; 1
     a62:	90 e0       	ldi	r25, 0x00	; 0
     a64:	a5 d9       	rcall	.-3254   	; 0xfffffdb0 <__eeprom_end+0xff7efc58>
     a66:	07 c0       	rjmp	.+14     	; 0xa76 <init_tx+0xd2>
     a68:	f0 e0       	ldi	r31, 0x00	; 0
     a6a:	ee 0f       	add	r30, r30
     a6c:	ff 1f       	adc	r31, r31
     a6e:	ee 59       	subi	r30, 0x9E	; 158
     a70:	ff 4f       	sbci	r31, 0xFF	; 255
     a72:	80 81       	ld	r24, Z
     a74:	91 81       	ldd	r25, Z+1	; 0x01
     a76:	90 93 25 02 	sts	0x0225, r25
     a7a:	80 93 24 02 	sts	0x0224, r24
     a7e:	20 91 24 02 	lds	r18, 0x0224
     a82:	30 91 25 02 	lds	r19, 0x0225
     a86:	40 e0       	ldi	r20, 0x00	; 0
     a88:	50 e0       	ldi	r21, 0x00	; 0
     a8a:	60 ec       	ldi	r22, 0xC0	; 192
     a8c:	77 e2       	ldi	r23, 0x27	; 39
     a8e:	89 e0       	ldi	r24, 0x09	; 9
     a90:	90 e0       	ldi	r25, 0x00	; 0
     a92:	1e d9       	rcall	.-3524   	; 0xfffffcd0 <__eeprom_end+0xff7efb78>
     a94:	20 93 14 02 	sts	0x0214, r18
     a98:	30 93 15 02 	sts	0x0215, r19
     a9c:	40 93 16 02 	sts	0x0216, r20
     aa0:	50 93 17 02 	sts	0x0217, r21
     aa4:	e0 92 1f 02 	sts	0x021F, r14
     aa8:	f0 92 20 02 	sts	0x0220, r15
     aac:	00 93 21 02 	sts	0x0221, r16
     ab0:	10 93 22 02 	sts	0x0222, r17
     ab4:	10 92 1b 02 	sts	0x021B, r1
     ab8:	df 91       	pop	r29
     aba:	cf 91       	pop	r28
     abc:	1f 91       	pop	r17
     abe:	0f 91       	pop	r16
     ac0:	ff 90       	pop	r15
     ac2:	ef 90       	pop	r14
     ac4:	08 95       	ret

00000ac6 <usbFunctionSetup>:
     ac6:	ef 92       	push	r14
     ac8:	ff 92       	push	r15
     aca:	0f 93       	push	r16
     acc:	1f 93       	push	r17
     ace:	cf 93       	push	r28
     ad0:	df 93       	push	r29
     ad2:	e8 2e       	mov	r14, r24
     ad4:	e7 01       	movw	r28, r14
     ad6:	7e 01       	movw	r14, r28
     ad8:	f9 2e       	mov	r15, r25
     ada:	e7 01       	movw	r28, r14
     adc:	e9 81       	ldd	r30, Y+1	; 0x01
     ade:	f0 e0       	ldi	r31, 0x00	; 0
     ae0:	e2 31       	cpi	r30, 0x12	; 18
     ae2:	f1 05       	cpc	r31, r1
     ae4:	08 f0       	brcs	.+2      	; 0xae8 <usbFunctionSetup+0x22>
     ae6:	60 c1       	rjmp	.+704    	; 0xda8 <usbFunctionSetup+0x2e2>
     ae8:	e1 5f       	subi	r30, 0xF1	; 241
     aea:	ff 4f       	sbci	r31, 0xFF	; 255
     aec:	09 94       	ijmp
     aee:	8a 81       	ldd	r24, Y+2	; 0x02
     af0:	80 93 da 01 	sts	0x01DA, r24
     af4:	8b 81       	ldd	r24, Y+3	; 0x03
     af6:	80 93 db 01 	sts	0x01DB, r24
     afa:	8c 81       	ldd	r24, Y+4	; 0x04
     afc:	80 93 dc 01 	sts	0x01DC, r24
     b00:	8d 81       	ldd	r24, Y+5	; 0x05
     b02:	80 93 dd 01 	sts	0x01DD, r24
     b06:	8a ed       	ldi	r24, 0xDA	; 218
     b08:	91 e0       	ldi	r25, 0x01	; 1
     b0a:	90 93 ed 01 	sts	0x01ED, r25
     b0e:	80 93 ec 01 	sts	0x01EC, r24
     b12:	14 e0       	ldi	r17, 0x04	; 4
     b14:	4a c1       	rjmp	.+660    	; 0xdaa <usbFunctionSetup+0x2e4>
     b16:	6a 81       	ldd	r22, Y+2	; 0x02
     b18:	60 93 18 02 	sts	0x0218, r22
     b1c:	80 e0       	ldi	r24, 0x00	; 0
     b1e:	90 e0       	ldi	r25, 0x00	; 0
     b20:	55 d9       	rcall	.-3414   	; 0xfffffdcc <__eeprom_end+0xff7efc74>
     b22:	80 91 18 02 	lds	r24, 0x0218
     b26:	ce e8       	ldi	r28, 0x8E	; 142
     b28:	d0 e0       	ldi	r29, 0x00	; 0
     b2a:	8a 30       	cpi	r24, 0x0A	; 10
     b2c:	31 f4       	brne	.+12     	; 0xb3a <usbFunctionSetup+0x74>
     b2e:	ce 01       	movw	r24, r28
     b30:	67 e5       	ldi	r22, 0x57	; 87
     b32:	70 e0       	ldi	r23, 0x00	; 0
     b34:	42 ea       	ldi	r20, 0xA2	; 162
     b36:	50 e0       	ldi	r21, 0x00	; 0
     b38:	05 c0       	rjmp	.+10     	; 0xb44 <usbFunctionSetup+0x7e>
     b3a:	ce 01       	movw	r24, r28
     b3c:	65 e0       	ldi	r22, 0x05	; 5
     b3e:	70 e0       	ldi	r23, 0x00	; 0
     b40:	48 e2       	ldi	r20, 0x28	; 40
     b42:	50 e0       	ldi	r21, 0x00	; 0
     b44:	1d d9       	rcall	.-3526   	; 0xfffffd80 <__eeprom_end+0xff7efc28>
     b46:	d0 93 27 02 	sts	0x0227, r29
     b4a:	c0 93 26 02 	sts	0x0226, r28
     b4e:	10 92 8a 00 	sts	0x008A, r1
     b52:	e0 90 86 00 	lds	r14, 0x0086
     b56:	f0 90 87 00 	lds	r15, 0x0087
     b5a:	00 91 88 00 	lds	r16, 0x0088
     b5e:	10 91 89 00 	lds	r17, 0x0089
     b62:	60 91 1e 02 	lds	r22, 0x021E
     b66:	6f 31       	cpi	r22, 0x1F	; 31
     b68:	08 f0       	brcs	.+2      	; 0xb6c <usbFunctionSetup+0xa6>
     b6a:	6e e1       	ldi	r22, 0x1E	; 30
     b6c:	70 e0       	ldi	r23, 0x00	; 0
     b6e:	80 e0       	ldi	r24, 0x00	; 0
     b70:	90 e0       	ldi	r25, 0x00	; 0
     b72:	2a e1       	ldi	r18, 0x1A	; 26
     b74:	35 e7       	ldi	r19, 0x75	; 117
     b76:	40 e0       	ldi	r20, 0x00	; 0
     b78:	50 e0       	ldi	r21, 0x00	; 0
     b7a:	7d d8       	rcall	.-3846   	; 0xfffffc76 <__eeprom_end+0xff7efb1e>
     b7c:	6e 0d       	add	r22, r14
     b7e:	7f 1d       	adc	r23, r15
     b80:	80 1f       	adc	r24, r16
     b82:	91 1f       	adc	r25, r17
     b84:	60 93 0a 02 	sts	0x020A, r22
     b88:	70 93 0b 02 	sts	0x020B, r23
     b8c:	80 93 0c 02 	sts	0x020C, r24
     b90:	90 93 0d 02 	sts	0x020D, r25
     b94:	10 92 8d 00 	sts	0x008D, r1
     b98:	10 92 8c 00 	sts	0x008C, r1
     b9c:	e0 91 18 02 	lds	r30, 0x0218
     ba0:	e8 30       	cpi	r30, 0x08	; 8
     ba2:	21 f4       	brne	.+8      	; 0xbac <usbFunctionSetup+0xe6>
     ba4:	81 e0       	ldi	r24, 0x01	; 1
     ba6:	90 e0       	ldi	r25, 0x00	; 0
     ba8:	03 d9       	rcall	.-3578   	; 0xfffffdb0 <__eeprom_end+0xff7efc58>
     baa:	07 c0       	rjmp	.+14     	; 0xbba <usbFunctionSetup+0xf4>
     bac:	f0 e0       	ldi	r31, 0x00	; 0
     bae:	ee 0f       	add	r30, r30
     bb0:	ff 1f       	adc	r31, r31
     bb2:	ee 59       	subi	r30, 0x9E	; 158
     bb4:	ff 4f       	sbci	r31, 0xFF	; 255
     bb6:	80 81       	ld	r24, Z
     bb8:	91 81       	ldd	r25, Z+1	; 0x01
     bba:	90 93 25 02 	sts	0x0225, r25
     bbe:	80 93 24 02 	sts	0x0224, r24
     bc2:	20 91 24 02 	lds	r18, 0x0224
     bc6:	30 91 25 02 	lds	r19, 0x0225
     bca:	40 e0       	ldi	r20, 0x00	; 0
     bcc:	50 e0       	ldi	r21, 0x00	; 0
     bce:	60 ec       	ldi	r22, 0xC0	; 192
     bd0:	77 e2       	ldi	r23, 0x27	; 39
     bd2:	89 e0       	ldi	r24, 0x09	; 9
     bd4:	90 e0       	ldi	r25, 0x00	; 0
     bd6:	7c d8       	rcall	.-3848   	; 0xfffffcd0 <__eeprom_end+0xff7efb78>
     bd8:	20 93 14 02 	sts	0x0214, r18
     bdc:	30 93 15 02 	sts	0x0215, r19
     be0:	40 93 16 02 	sts	0x0216, r20
     be4:	50 93 17 02 	sts	0x0217, r21
     be8:	e0 92 1f 02 	sts	0x021F, r14
     bec:	f0 92 20 02 	sts	0x0220, r15
     bf0:	00 93 21 02 	sts	0x0221, r16
     bf4:	10 93 22 02 	sts	0x0222, r17
     bf8:	10 92 1b 02 	sts	0x021B, r1
     bfc:	d5 c0       	rjmp	.+426    	; 0xda8 <usbFunctionSetup+0x2e2>
     bfe:	80 91 18 02 	lds	r24, 0x0218
     c02:	a2 c0       	rjmp	.+324    	; 0xd48 <usbFunctionSetup+0x282>
     c04:	10 92 d9 01 	sts	0x01D9, r1
     c08:	8e 81       	ldd	r24, Y+6	; 0x06
     c0a:	80 93 d8 01 	sts	0x01D8, r24
     c0e:	84 3a       	cpi	r24, 0xA4	; 164
     c10:	18 f0       	brcs	.+6      	; 0xc18 <usbFunctionSetup+0x152>
     c12:	83 ea       	ldi	r24, 0xA3	; 163
     c14:	80 93 d8 01 	sts	0x01D8, r24
     c18:	10 92 13 02 	sts	0x0213, r1
     c1c:	c2 c0       	rjmp	.+388    	; 0xda2 <usbFunctionSetup+0x2dc>
     c1e:	8e 81       	ldd	r24, Y+6	; 0x06
     c20:	9f 81       	ldd	r25, Y+7	; 0x07
     c22:	89 32       	cpi	r24, 0x29	; 41
     c24:	91 05       	cpc	r25, r1
     c26:	10 f4       	brcc	.+4      	; 0xc2c <usbFunctionSetup+0x166>
     c28:	18 2f       	mov	r17, r24
     c2a:	01 c0       	rjmp	.+2      	; 0xc2e <usbFunctionSetup+0x168>
     c2c:	19 e2       	ldi	r17, 0x29	; 41
     c2e:	c1 e3       	ldi	r28, 0x31	; 49
     c30:	d1 e0       	ldi	r29, 0x01	; 1
     c32:	ce 01       	movw	r24, r28
     c34:	65 e0       	ldi	r22, 0x05	; 5
     c36:	70 e0       	ldi	r23, 0x00	; 0
     c38:	19 c0       	rjmp	.+50     	; 0xc6c <usbFunctionSetup+0x1a6>
     c3a:	10 92 d9 01 	sts	0x01D9, r1
     c3e:	8e 81       	ldd	r24, Y+6	; 0x06
     c40:	80 93 d8 01 	sts	0x01D8, r24
     c44:	84 3a       	cpi	r24, 0xA4	; 164
     c46:	18 f0       	brcs	.+6      	; 0xc4e <usbFunctionSetup+0x188>
     c48:	83 ea       	ldi	r24, 0xA3	; 163
     c4a:	80 93 d8 01 	sts	0x01D8, r24
     c4e:	81 e0       	ldi	r24, 0x01	; 1
     c50:	a6 c0       	rjmp	.+332    	; 0xd9e <usbFunctionSetup+0x2d8>
     c52:	8e 81       	ldd	r24, Y+6	; 0x06
     c54:	9f 81       	ldd	r25, Y+7	; 0x07
     c56:	89 32       	cpi	r24, 0x29	; 41
     c58:	91 05       	cpc	r25, r1
     c5a:	10 f4       	brcc	.+4      	; 0xc60 <usbFunctionSetup+0x19a>
     c5c:	18 2f       	mov	r17, r24
     c5e:	01 c0       	rjmp	.+2      	; 0xc62 <usbFunctionSetup+0x19c>
     c60:	19 e2       	ldi	r17, 0x29	; 41
     c62:	c1 e3       	ldi	r28, 0x31	; 49
     c64:	d1 e0       	ldi	r29, 0x01	; 1
     c66:	ce 01       	movw	r24, r28
     c68:	6e e2       	ldi	r22, 0x2E	; 46
     c6a:	70 e0       	ldi	r23, 0x00	; 0
     c6c:	48 e2       	ldi	r20, 0x28	; 40
     c6e:	50 e0       	ldi	r21, 0x00	; 0
     c70:	87 d8       	rcall	.-3826   	; 0xfffffd80 <__eeprom_end+0xff7efc28>
     c72:	d0 93 ed 01 	sts	0x01ED, r29
     c76:	c0 93 ec 01 	sts	0x01EC, r28
     c7a:	97 c0       	rjmp	.+302    	; 0xdaa <usbFunctionSetup+0x2e4>
     c7c:	8a 81       	ldd	r24, Y+2	; 0x02
     c7e:	90 e0       	ldi	r25, 0x00	; 0
     c80:	68 ee       	ldi	r22, 0xE8	; 232
     c82:	73 e0       	ldi	r23, 0x03	; 3
     c84:	e6 d7       	rcall	.+4044   	; 0x1c52 <__mulhi3>
     c86:	ec 01       	movw	r28, r24
     c88:	90 93 25 02 	sts	0x0225, r25
     c8c:	80 93 24 02 	sts	0x0224, r24
     c90:	9c 01       	movw	r18, r24
     c92:	40 e0       	ldi	r20, 0x00	; 0
     c94:	50 e0       	ldi	r21, 0x00	; 0
     c96:	60 ec       	ldi	r22, 0xC0	; 192
     c98:	77 e2       	ldi	r23, 0x27	; 39
     c9a:	89 e0       	ldi	r24, 0x09	; 9
     c9c:	90 e0       	ldi	r25, 0x00	; 0
     c9e:	18 d8       	rcall	.-4048   	; 0xfffffcd0 <__eeprom_end+0xff7efb78>
     ca0:	20 93 14 02 	sts	0x0214, r18
     ca4:	30 93 15 02 	sts	0x0215, r19
     ca8:	40 93 16 02 	sts	0x0216, r20
     cac:	50 93 17 02 	sts	0x0217, r21
     cb0:	81 e0       	ldi	r24, 0x01	; 1
     cb2:	90 e0       	ldi	r25, 0x00	; 0
     cb4:	be 01       	movw	r22, r28
     cb6:	98 d8       	rcall	.-3792   	; 0xfffffde8 <__eeprom_end+0xff7efc90>
     cb8:	77 c0       	rjmp	.+238    	; 0xda8 <usbFunctionSetup+0x2e2>
     cba:	80 91 24 02 	lds	r24, 0x0224
     cbe:	90 91 25 02 	lds	r25, 0x0225
     cc2:	68 ee       	ldi	r22, 0xE8	; 232
     cc4:	73 e0       	ldi	r23, 0x03	; 3
     cc6:	f0 d7       	rcall	.+4064   	; 0x1ca8 <__udivmodhi4>
     cc8:	60 93 da 01 	sts	0x01DA, r22
     ccc:	3f c0       	rjmp	.+126    	; 0xd4c <usbFunctionSetup+0x286>
     cce:	83 e0       	ldi	r24, 0x03	; 3
     cd0:	90 e0       	ldi	r25, 0x00	; 0
     cd2:	6a 81       	ldd	r22, Y+2	; 0x02
     cd4:	7b d8       	rcall	.-3850   	; 0xfffffdcc <__eeprom_end+0xff7efc74>
     cd6:	6a 81       	ldd	r22, Y+2	; 0x02
     cd8:	60 93 1e 02 	sts	0x021E, r22
     cdc:	6f 31       	cpi	r22, 0x1F	; 31
     cde:	08 f0       	brcs	.+2      	; 0xce2 <usbFunctionSetup+0x21c>
     ce0:	6e e1       	ldi	r22, 0x1E	; 30
     ce2:	70 e0       	ldi	r23, 0x00	; 0
     ce4:	80 e0       	ldi	r24, 0x00	; 0
     ce6:	90 e0       	ldi	r25, 0x00	; 0
     ce8:	2a e1       	ldi	r18, 0x1A	; 26
     cea:	35 e7       	ldi	r19, 0x75	; 117
     cec:	40 e0       	ldi	r20, 0x00	; 0
     cee:	50 e0       	ldi	r21, 0x00	; 0
     cf0:	c2 d7       	rcall	.+3972   	; 0x1c76 <__mulsi3>
     cf2:	20 91 86 00 	lds	r18, 0x0086
     cf6:	30 91 87 00 	lds	r19, 0x0087
     cfa:	40 91 88 00 	lds	r20, 0x0088
     cfe:	50 91 89 00 	lds	r21, 0x0089
     d02:	62 0f       	add	r22, r18
     d04:	73 1f       	adc	r23, r19
     d06:	84 1f       	adc	r24, r20
     d08:	95 1f       	adc	r25, r21
     d0a:	60 93 0a 02 	sts	0x020A, r22
     d0e:	70 93 0b 02 	sts	0x020B, r23
     d12:	80 93 0c 02 	sts	0x020C, r24
     d16:	90 93 0d 02 	sts	0x020D, r25
     d1a:	46 c0       	rjmp	.+140    	; 0xda8 <usbFunctionSetup+0x2e2>
     d1c:	80 91 1e 02 	lds	r24, 0x021E
     d20:	13 c0       	rjmp	.+38     	; 0xd48 <usbFunctionSetup+0x282>
     d22:	8a 81       	ldd	r24, Y+2	; 0x02
     d24:	81 30       	cpi	r24, 0x01	; 1
     d26:	31 f4       	brne	.+12     	; 0xd34 <usbFunctionSetup+0x26e>
     d28:	80 93 09 02 	sts	0x0209, r24
     d2c:	8a ef       	ldi	r24, 0xFA	; 250
     d2e:	90 e0       	ldi	r25, 0x00	; 0
     d30:	61 e0       	ldi	r22, 0x01	; 1
     d32:	19 c0       	rjmp	.+50     	; 0xd66 <usbFunctionSetup+0x2a0>
     d34:	82 30       	cpi	r24, 0x02	; 2
     d36:	c1 f5       	brne	.+112    	; 0xda8 <usbFunctionSetup+0x2e2>
     d38:	80 93 09 02 	sts	0x0209, r24
     d3c:	8a ef       	ldi	r24, 0xFA	; 250
     d3e:	90 e0       	ldi	r25, 0x00	; 0
     d40:	62 e0       	ldi	r22, 0x02	; 2
     d42:	11 c0       	rjmp	.+34     	; 0xd66 <usbFunctionSetup+0x2a0>
     d44:	80 91 09 02 	lds	r24, 0x0209
     d48:	80 93 da 01 	sts	0x01DA, r24
     d4c:	8a ed       	ldi	r24, 0xDA	; 218
     d4e:	91 e0       	ldi	r25, 0x01	; 1
     d50:	90 93 ed 01 	sts	0x01ED, r25
     d54:	80 93 ec 01 	sts	0x01EC, r24
     d58:	11 e0       	ldi	r17, 0x01	; 1
     d5a:	27 c0       	rjmp	.+78     	; 0xdaa <usbFunctionSetup+0x2e4>
     d5c:	6a 81       	ldd	r22, Y+2	; 0x02
     d5e:	60 93 23 02 	sts	0x0223, r22
     d62:	84 e0       	ldi	r24, 0x04	; 4
     d64:	90 e0       	ldi	r25, 0x00	; 0
     d66:	32 d8       	rcall	.-3996   	; 0xfffffdcc <__eeprom_end+0xff7efc74>
     d68:	1f c0       	rjmp	.+62     	; 0xda8 <usbFunctionSetup+0x2e2>
     d6a:	80 91 23 02 	lds	r24, 0x0223
     d6e:	ec cf       	rjmp	.-40     	; 0xd48 <usbFunctionSetup+0x282>
     d70:	10 92 d9 01 	sts	0x01D9, r1
     d74:	8e 81       	ldd	r24, Y+6	; 0x06
     d76:	80 93 d8 01 	sts	0x01D8, r24
     d7a:	84 3a       	cpi	r24, 0xA4	; 164
     d7c:	18 f0       	brcs	.+6      	; 0xd84 <usbFunctionSetup+0x2be>
     d7e:	83 ea       	ldi	r24, 0xA3	; 163
     d80:	80 93 d8 01 	sts	0x01D8, r24
     d84:	82 e0       	ldi	r24, 0x02	; 2
     d86:	0b c0       	rjmp	.+22     	; 0xd9e <usbFunctionSetup+0x2d8>
     d88:	10 92 d9 01 	sts	0x01D9, r1
     d8c:	8e 81       	ldd	r24, Y+6	; 0x06
     d8e:	80 93 d8 01 	sts	0x01D8, r24
     d92:	84 3a       	cpi	r24, 0xA4	; 164
     d94:	18 f0       	brcs	.+6      	; 0xd9c <usbFunctionSetup+0x2d6>
     d96:	83 ea       	ldi	r24, 0xA3	; 163
     d98:	80 93 d8 01 	sts	0x01D8, r24
     d9c:	83 e0       	ldi	r24, 0x03	; 3
     d9e:	80 93 13 02 	sts	0x0213, r24
     da2:	1f ef       	ldi	r17, 0xFF	; 255
     da4:	02 c0       	rjmp	.+4      	; 0xdaa <usbFunctionSetup+0x2e4>
     da6:	fe dd       	rcall	.-1028   	; 0x9a4 <init_tx>
     da8:	10 e0       	ldi	r17, 0x00	; 0
     daa:	81 2f       	mov	r24, r17
     dac:	df 91       	pop	r29
     dae:	cf 91       	pop	r28
     db0:	1f 91       	pop	r17
     db2:	0f 91       	pop	r16
     db4:	ff 90       	pop	r15
     db6:	ef 90       	pop	r14
     db8:	08 95       	ret

00000dba <debounce>:
     dba:	b1 99       	sbic	0x16, 1	; 22
     dbc:	11 c0       	rjmp	.+34     	; 0xde0 <debounce+0x26>
     dbe:	80 91 d6 01 	lds	r24, 0x01D6
     dc2:	90 91 d7 01 	lds	r25, 0x01D7
     dc6:	83 30       	cpi	r24, 0x03	; 3
     dc8:	91 05       	cpc	r25, r1
     dca:	28 f4       	brcc	.+10     	; 0xdd6 <debounce+0x1c>
     dcc:	01 96       	adiw	r24, 0x01	; 1
     dce:	90 93 d7 01 	sts	0x01D7, r25
     dd2:	80 93 d6 01 	sts	0x01D6, r24
     dd6:	10 92 d5 01 	sts	0x01D5, r1
     dda:	10 92 d4 01 	sts	0x01D4, r1
     dde:	10 c0       	rjmp	.+32     	; 0xe00 <debounce+0x46>
     de0:	80 91 d4 01 	lds	r24, 0x01D4
     de4:	90 91 d5 01 	lds	r25, 0x01D5
     de8:	83 30       	cpi	r24, 0x03	; 3
     dea:	91 05       	cpc	r25, r1
     dec:	28 f4       	brcc	.+10     	; 0xdf8 <debounce+0x3e>
     dee:	01 96       	adiw	r24, 0x01	; 1
     df0:	90 93 d5 01 	sts	0x01D5, r25
     df4:	80 93 d4 01 	sts	0x01D4, r24
     df8:	10 92 d7 01 	sts	0x01D7, r1
     dfc:	10 92 d6 01 	sts	0x01D6, r1
     e00:	80 91 d6 01 	lds	r24, 0x01D6
     e04:	90 91 d7 01 	lds	r25, 0x01D7
     e08:	83 30       	cpi	r24, 0x03	; 3
     e0a:	91 05       	cpc	r25, r1
     e0c:	18 f0       	brcs	.+6      	; 0xe14 <debounce+0x5a>
     e0e:	81 e0       	ldi	r24, 0x01	; 1
     e10:	80 93 12 02 	sts	0x0212, r24
     e14:	80 91 d4 01 	lds	r24, 0x01D4
     e18:	90 91 d5 01 	lds	r25, 0x01D5
     e1c:	83 30       	cpi	r24, 0x03	; 3
     e1e:	91 05       	cpc	r25, r1
     e20:	10 f0       	brcs	.+4      	; 0xe26 <debounce+0x6c>
     e22:	10 92 12 02 	sts	0x0212, r1
     e26:	08 95       	ret

00000e28 <__vector_10>:
     e28:	1f 92       	push	r1
     e2a:	0f 92       	push	r0
     e2c:	0f b6       	in	r0, 0x3f	; 63
     e2e:	0f 92       	push	r0
     e30:	11 24       	eor	r1, r1
     e32:	2f 93       	push	r18
     e34:	3f 93       	push	r19
     e36:	4f 93       	push	r20
     e38:	5f 93       	push	r21
     e3a:	6f 93       	push	r22
     e3c:	7f 93       	push	r23
     e3e:	8f 93       	push	r24
     e40:	9f 93       	push	r25
     e42:	af 93       	push	r26
     e44:	bf 93       	push	r27
     e46:	ef 93       	push	r30
     e48:	ff 93       	push	r31
     e4a:	80 91 0e 02 	lds	r24, 0x020E
     e4e:	90 91 0f 02 	lds	r25, 0x020F
     e52:	a0 91 10 02 	lds	r26, 0x0210
     e56:	b0 91 11 02 	lds	r27, 0x0211
     e5a:	01 96       	adiw	r24, 0x01	; 1
     e5c:	a1 1d       	adc	r26, r1
     e5e:	b1 1d       	adc	r27, r1
     e60:	80 93 0e 02 	sts	0x020E, r24
     e64:	90 93 0f 02 	sts	0x020F, r25
     e68:	a0 93 10 02 	sts	0x0210, r26
     e6c:	b0 93 11 02 	sts	0x0211, r27
     e70:	a4 df       	rcall	.-184    	; 0xdba <debounce>
     e72:	ff 91       	pop	r31
     e74:	ef 91       	pop	r30
     e76:	bf 91       	pop	r27
     e78:	af 91       	pop	r26
     e7a:	9f 91       	pop	r25
     e7c:	8f 91       	pop	r24
     e7e:	7f 91       	pop	r23
     e80:	6f 91       	pop	r22
     e82:	5f 91       	pop	r21
     e84:	4f 91       	pop	r20
     e86:	3f 91       	pop	r19
     e88:	2f 91       	pop	r18
     e8a:	0f 90       	pop	r0
     e8c:	0f be       	out	0x3f, r0	; 63
     e8e:	0f 90       	pop	r0
     e90:	1f 90       	pop	r1
     e92:	18 95       	reti

00000e94 <main>:
     e94:	2f 92       	push	r2
     e96:	3f 92       	push	r3
     e98:	4f 92       	push	r4
     e9a:	5f 92       	push	r5
     e9c:	6f 92       	push	r6
     e9e:	7f 92       	push	r7
     ea0:	8f 92       	push	r8
     ea2:	9f 92       	push	r9
     ea4:	af 92       	push	r10
     ea6:	bf 92       	push	r11
     ea8:	cf 92       	push	r12
     eaa:	df 92       	push	r13
     eac:	ef 92       	push	r14
     eae:	ff 92       	push	r15
     eb0:	0f 93       	push	r16
     eb2:	1f 93       	push	r17
     eb4:	cf 93       	push	r28
     eb6:	df 93       	push	r29
     eb8:	87 e5       	ldi	r24, 0x57	; 87
     eba:	91 e0       	ldi	r25, 0x01	; 1
     ebc:	71 d7       	rcall	.+3810   	; 0x1da0 <__eerd_byte_tn85>
     ebe:	8f 3f       	cpi	r24, 0xFF	; 255
     ec0:	09 f0       	breq	.+2      	; 0xec4 <main+0x30>
     ec2:	81 bf       	out	0x31, r24	; 49
     ec4:	2e e0       	ldi	r18, 0x0E	; 14
     ec6:	88 e1       	ldi	r24, 0x18	; 24
     ec8:	90 e0       	ldi	r25, 0x00	; 0
     eca:	0f b6       	in	r0, 0x3f	; 63
     ecc:	f8 94       	cli
     ece:	a8 95       	wdr
     ed0:	81 bd       	out	0x21, r24	; 33
     ed2:	0f be       	out	0x3f, r0	; 63
     ed4:	21 bd       	out	0x21, r18	; 33
     ed6:	23 db       	rcall	.-2490   	; 0x51e <usbInit>
     ed8:	b8 9a       	sbi	0x17, 0	; 23
     eda:	80 e0       	ldi	r24, 0x00	; 0
     edc:	07 c0       	rjmp	.+14     	; 0xeec <main+0x58>
     ede:	a8 95       	wdr
     ee0:	ac e1       	ldi	r26, 0x1C	; 28
     ee2:	b0 e1       	ldi	r27, 0x10	; 16
     ee4:	11 97       	sbiw	r26, 0x01	; 1
     ee6:	f1 f7       	brne	.-4      	; 0xee4 <main+0x50>
     ee8:	00 c0       	rjmp	.+0      	; 0xeea <main+0x56>
     eea:	00 00       	nop
     eec:	81 50       	subi	r24, 0x01	; 1
     eee:	b9 f7       	brne	.-18     	; 0xede <main+0x4a>
     ef0:	b8 98       	cbi	0x17, 0	; 23
     ef2:	8a b5       	in	r24, 0x2a	; 42
     ef4:	82 60       	ori	r24, 0x02	; 2
     ef6:	8a bd       	out	0x2a, r24	; 42
     ef8:	84 e0       	ldi	r24, 0x04	; 4
     efa:	83 bf       	out	0x33, r24	; 51
     efc:	80 e8       	ldi	r24, 0x80	; 128
     efe:	89 bd       	out	0x29, r24	; 41
     f00:	89 b7       	in	r24, 0x39	; 57
     f02:	80 61       	ori	r24, 0x10	; 16
     f04:	89 bf       	out	0x39, r24	; 57
     f06:	81 e0       	ldi	r24, 0x01	; 1
     f08:	80 bf       	out	0x30, r24	; 48
     f0a:	80 e6       	ldi	r24, 0x60	; 96
     f0c:	8c bd       	out	0x2c, r24	; 44
     f0e:	1b bc       	out	0x2b, r1	; 43
     f10:	8f ef       	ldi	r24, 0xFF	; 255
     f12:	8d bd       	out	0x2d, r24	; 45
     f14:	96 e0       	ldi	r25, 0x06	; 6
     f16:	97 bd       	out	0x27, r25	; 39
     f18:	bc 9a       	sbi	0x17, 4	; 23
     f1a:	c4 98       	cbi	0x18, 4	; 24
     f1c:	bb 9a       	sbi	0x17, 3	; 23
     f1e:	c3 9a       	sbi	0x18, 3	; 24
     f20:	b9 98       	cbi	0x17, 1	; 23
     f22:	c1 9a       	sbi	0x18, 1	; 24
     f24:	8b bd       	out	0x2b, r24	; 43
     f26:	c3 9a       	sbi	0x18, 3	; 24
     f28:	ce e8       	ldi	r28, 0x8E	; 142
     f2a:	d0 e0       	ldi	r29, 0x00	; 0
     f2c:	89 e2       	ldi	r24, 0x29	; 41
     f2e:	fe 01       	movw	r30, r28
     f30:	11 92       	st	Z+, r1
     f32:	8a 95       	dec	r24
     f34:	e9 f7       	brne	.-6      	; 0xf30 <main+0x9c>
     f36:	d0 93 27 02 	sts	0x0227, r29
     f3a:	c0 93 26 02 	sts	0x0226, r28
     f3e:	80 e0       	ldi	r24, 0x00	; 0
     f40:	90 e0       	ldi	r25, 0x00	; 0
     f42:	2e d7       	rcall	.+3676   	; 0x1da0 <__eerd_byte_tn85>
     f44:	80 93 18 02 	sts	0x0218, r24
     f48:	10 92 1b 02 	sts	0x021B, r1
     f4c:	8a ef       	ldi	r24, 0xFA	; 250
     f4e:	90 e0       	ldi	r25, 0x00	; 0
     f50:	27 d7       	rcall	.+3662   	; 0x1da0 <__eerd_byte_tn85>
     f52:	18 2f       	mov	r17, r24
     f54:	80 93 09 02 	sts	0x0209, r24
     f58:	84 e0       	ldi	r24, 0x04	; 4
     f5a:	90 e0       	ldi	r25, 0x00	; 0
     f5c:	21 d7       	rcall	.+3650   	; 0x1da0 <__eerd_byte_tn85>
     f5e:	80 93 23 02 	sts	0x0223, r24
     f62:	11 30       	cpi	r17, 0x01	; 1
     f64:	21 f4       	brne	.+8      	; 0xf6e <main+0xda>
     f66:	ce 01       	movw	r24, r28
     f68:	65 e0       	ldi	r22, 0x05	; 5
     f6a:	70 e0       	ldi	r23, 0x00	; 0
     f6c:	05 c0       	rjmp	.+10     	; 0xf78 <main+0xe4>
     f6e:	12 30       	cpi	r17, 0x02	; 2
     f70:	31 f4       	brne	.+12     	; 0xf7e <main+0xea>
     f72:	ce 01       	movw	r24, r28
     f74:	6e e2       	ldi	r22, 0x2E	; 46
     f76:	70 e0       	ldi	r23, 0x00	; 0
     f78:	48 e2       	ldi	r20, 0x28	; 40
     f7a:	50 e0       	ldi	r21, 0x00	; 0
     f7c:	01 d7       	rcall	.+3586   	; 0x1d80 <__eerd_block_tn85>
     f7e:	83 e0       	ldi	r24, 0x03	; 3
     f80:	90 e0       	ldi	r25, 0x00	; 0
     f82:	0e d7       	rcall	.+3612   	; 0x1da0 <__eerd_byte_tn85>
     f84:	80 93 1e 02 	sts	0x021E, r24
     f88:	68 2f       	mov	r22, r24
     f8a:	8f 31       	cpi	r24, 0x1F	; 31
     f8c:	08 f0       	brcs	.+2      	; 0xf90 <main+0xfc>
     f8e:	6e e1       	ldi	r22, 0x1E	; 30
     f90:	70 e0       	ldi	r23, 0x00	; 0
     f92:	80 e0       	ldi	r24, 0x00	; 0
     f94:	90 e0       	ldi	r25, 0x00	; 0
     f96:	2a e1       	ldi	r18, 0x1A	; 26
     f98:	35 e7       	ldi	r19, 0x75	; 117
     f9a:	40 e0       	ldi	r20, 0x00	; 0
     f9c:	50 e0       	ldi	r21, 0x00	; 0
     f9e:	6b d6       	rcall	.+3286   	; 0x1c76 <__mulsi3>
     fa0:	20 91 86 00 	lds	r18, 0x0086
     fa4:	30 91 87 00 	lds	r19, 0x0087
     fa8:	40 91 88 00 	lds	r20, 0x0088
     fac:	50 91 89 00 	lds	r21, 0x0089
     fb0:	62 0f       	add	r22, r18
     fb2:	73 1f       	adc	r23, r19
     fb4:	84 1f       	adc	r24, r20
     fb6:	95 1f       	adc	r25, r21
     fb8:	60 93 0a 02 	sts	0x020A, r22
     fbc:	70 93 0b 02 	sts	0x020B, r23
     fc0:	80 93 0c 02 	sts	0x020C, r24
     fc4:	90 93 0d 02 	sts	0x020D, r25
     fc8:	ed dc       	rcall	.-1574   	; 0x9a4 <init_tx>
     fca:	78 94       	sei
     fcc:	08 e0       	ldi	r16, 0x08	; 8
     fce:	90 2e       	mov	r9, r16
     fd0:	17 e0       	ldi	r17, 0x07	; 7
     fd2:	71 2e       	mov	r7, r17
     fd4:	ce e8       	ldi	r28, 0x8E	; 142
     fd6:	d0 e0       	ldi	r29, 0x00	; 0
     fd8:	b5 e0       	ldi	r27, 0x05	; 5
     fda:	8b 2e       	mov	r8, r27
     fdc:	66 24       	eor	r6, r6
     fde:	63 94       	inc	r6
     fe0:	a3 e0       	ldi	r26, 0x03	; 3
     fe2:	2a 2e       	mov	r2, r26
     fe4:	f6 e0       	ldi	r31, 0x06	; 6
     fe6:	5f 2e       	mov	r5, r31
     fe8:	eb e0       	ldi	r30, 0x0B	; 11
     fea:	4e 2e       	mov	r4, r30
     fec:	7a e0       	ldi	r23, 0x0A	; 10
     fee:	37 2e       	mov	r3, r23
     ff0:	f8 94       	cli
     ff2:	80 91 0e 02 	lds	r24, 0x020E
     ff6:	90 91 0f 02 	lds	r25, 0x020F
     ffa:	a0 91 10 02 	lds	r26, 0x0210
     ffe:	b0 91 11 02 	lds	r27, 0x0211
    1002:	80 93 86 00 	sts	0x0086, r24
    1006:	90 93 87 00 	sts	0x0087, r25
    100a:	a0 93 88 00 	sts	0x0088, r26
    100e:	b0 93 89 00 	sts	0x0089, r27
    1012:	78 94       	sei
    1014:	80 91 12 02 	lds	r24, 0x0212
    1018:	81 11       	cpse	r24, r1
    101a:	c4 dc       	rcall	.-1656   	; 0x9a4 <init_tx>
    101c:	20 91 18 02 	lds	r18, 0x0218
    1020:	29 30       	cpi	r18, 0x09	; 9
    1022:	09 f4       	brne	.+2      	; 0x1026 <main+0x192>
    1024:	eb c1       	rjmp	.+982    	; 0x13fc <main+0x568>
    1026:	29 30       	cpi	r18, 0x09	; 9
    1028:	50 f0       	brcs	.+20     	; 0x103e <main+0x1aa>
    102a:	2b 30       	cpi	r18, 0x0B	; 11
    102c:	09 f4       	brne	.+2      	; 0x1030 <main+0x19c>
    102e:	42 c3       	rjmp	.+1668   	; 0x16b4 <main+0x820>
    1030:	2b 30       	cpi	r18, 0x0B	; 11
    1032:	08 f4       	brcc	.+2      	; 0x1036 <main+0x1a2>
    1034:	24 c5       	rjmp	.+2632   	; 0x1a7e <main+0xbea>
    1036:	2c 30       	cpi	r18, 0x0C	; 12
    1038:	09 f0       	breq	.+2      	; 0x103c <main+0x1a8>
    103a:	fa c5       	rjmp	.+3060   	; 0x1c30 <main+0xd9c>
    103c:	a7 c5       	rjmp	.+2894   	; 0x1b8c <main+0xcf8>
    103e:	80 91 1b 02 	lds	r24, 0x021B
    1042:	83 30       	cpi	r24, 0x03	; 3
    1044:	20 f4       	brcc	.+8      	; 0x104e <main+0x1ba>
    1046:	81 30       	cpi	r24, 0x01	; 1
    1048:	08 f0       	brcs	.+2      	; 0x104c <main+0x1b8>
    104a:	79 c1       	rjmp	.+754    	; 0x133e <main+0x4aa>
    104c:	07 c0       	rjmp	.+14     	; 0x105c <main+0x1c8>
    104e:	87 30       	cpi	r24, 0x07	; 7
    1050:	08 f4       	brcc	.+2      	; 0x1054 <main+0x1c0>
    1052:	bf c1       	rjmp	.+894    	; 0x13d2 <main+0x53e>
    1054:	8d 30       	cpi	r24, 0x0D	; 13
    1056:	09 f0       	breq	.+2      	; 0x105a <main+0x1c6>
    1058:	f9 c5       	rjmp	.+3058   	; 0x1c4c <main+0xdb8>
    105a:	6f c1       	rjmp	.+734    	; 0x133a <main+0x4a6>
    105c:	c3 98       	cbi	0x18, 3	; 24
    105e:	60 91 1e 02 	lds	r22, 0x021E
    1062:	66 23       	and	r22, r22
    1064:	09 f4       	brne	.+2      	; 0x1068 <main+0x1d4>
    1066:	5c c0       	rjmp	.+184    	; 0x1120 <main+0x28c>
    1068:	e0 90 86 00 	lds	r14, 0x0086
    106c:	f0 90 87 00 	lds	r15, 0x0087
    1070:	00 91 88 00 	lds	r16, 0x0088
    1074:	10 91 89 00 	lds	r17, 0x0089
    1078:	80 91 0a 02 	lds	r24, 0x020A
    107c:	90 91 0b 02 	lds	r25, 0x020B
    1080:	a0 91 0c 02 	lds	r26, 0x020C
    1084:	b0 91 0d 02 	lds	r27, 0x020D
    1088:	e8 16       	cp	r14, r24
    108a:	f9 06       	cpc	r15, r25
    108c:	0a 07       	cpc	r16, r26
    108e:	1b 07       	cpc	r17, r27
    1090:	08 f4       	brcc	.+2      	; 0x1094 <main+0x200>
    1092:	46 c0       	rjmp	.+140    	; 0x1120 <main+0x28c>
    1094:	80 91 26 02 	lds	r24, 0x0226
    1098:	90 91 27 02 	lds	r25, 0x0227
    109c:	f0 e0       	ldi	r31, 0x00	; 0
    109e:	8e 38       	cpi	r24, 0x8E	; 142
    10a0:	9f 07       	cpc	r25, r31
    10a2:	f1 f5       	brne	.+124    	; 0x1120 <main+0x28c>
    10a4:	28 30       	cpi	r18, 0x08	; 8
    10a6:	e1 f1       	breq	.+120    	; 0x1120 <main+0x28c>
    10a8:	6f 31       	cpi	r22, 0x1F	; 31
    10aa:	08 f0       	brcs	.+2      	; 0x10ae <main+0x21a>
    10ac:	6e e1       	ldi	r22, 0x1E	; 30
    10ae:	70 e0       	ldi	r23, 0x00	; 0
    10b0:	80 e0       	ldi	r24, 0x00	; 0
    10b2:	90 e0       	ldi	r25, 0x00	; 0
    10b4:	2a e1       	ldi	r18, 0x1A	; 26
    10b6:	35 e7       	ldi	r19, 0x75	; 117
    10b8:	40 e0       	ldi	r20, 0x00	; 0
    10ba:	50 e0       	ldi	r21, 0x00	; 0
    10bc:	dc d5       	rcall	.+3000   	; 0x1c76 <__mulsi3>
    10be:	6e 0d       	add	r22, r14
    10c0:	7f 1d       	adc	r23, r15
    10c2:	80 1f       	adc	r24, r16
    10c4:	91 1f       	adc	r25, r17
    10c6:	60 93 0a 02 	sts	0x020A, r22
    10ca:	70 93 0b 02 	sts	0x020B, r23
    10ce:	80 93 0c 02 	sts	0x020C, r24
    10d2:	90 93 0d 02 	sts	0x020D, r25
    10d6:	20 91 14 02 	lds	r18, 0x0214
    10da:	30 91 15 02 	lds	r19, 0x0215
    10de:	40 91 16 02 	lds	r20, 0x0216
    10e2:	50 91 17 02 	lds	r21, 0x0217
    10e6:	da 01       	movw	r26, r20
    10e8:	c9 01       	movw	r24, r18
    10ea:	63 e0       	ldi	r22, 0x03	; 3
    10ec:	88 0f       	add	r24, r24
    10ee:	99 1f       	adc	r25, r25
    10f0:	aa 1f       	adc	r26, r26
    10f2:	bb 1f       	adc	r27, r27
    10f4:	6a 95       	dec	r22
    10f6:	d1 f7       	brne	.-12     	; 0x10ec <main+0x258>
    10f8:	82 1b       	sub	r24, r18
    10fa:	93 0b       	sbc	r25, r19
    10fc:	a4 0b       	sbc	r26, r20
    10fe:	b5 0b       	sbc	r27, r21
    1100:	8e 0d       	add	r24, r14
    1102:	9f 1d       	adc	r25, r15
    1104:	a0 1f       	adc	r26, r16
    1106:	b1 1f       	adc	r27, r17
    1108:	80 93 1f 02 	sts	0x021F, r24
    110c:	90 93 20 02 	sts	0x0220, r25
    1110:	a0 93 21 02 	sts	0x0221, r26
    1114:	b0 93 22 02 	sts	0x0222, r27
    1118:	2d e0       	ldi	r18, 0x0D	; 13
    111a:	20 93 1b 02 	sts	0x021B, r18
    111e:	96 c5       	rjmp	.+2860   	; 0x1c4c <main+0xdb8>
    1120:	80 91 26 02 	lds	r24, 0x0226
    1124:	90 91 27 02 	lds	r25, 0x0227
    1128:	30 e0       	ldi	r19, 0x00	; 0
    112a:	8e 38       	cpi	r24, 0x8E	; 142
    112c:	93 07       	cpc	r25, r19
    112e:	61 f4       	brne	.+24     	; 0x1148 <main+0x2b4>
    1130:	80 91 8a 00 	lds	r24, 0x008A
    1134:	88 23       	and	r24, r24
    1136:	41 f4       	brne	.+16     	; 0x1148 <main+0x2b4>
    1138:	e0 91 8e 00 	lds	r30, 0x008E
    113c:	f0 e0       	ldi	r31, 0x00	; 0
    113e:	ee 58       	subi	r30, 0x8E	; 142
    1140:	ff 4f       	sbci	r31, 0xFF	; 255
    1142:	e4 91       	lpm	r30, Z+
    1144:	e0 93 8a 00 	sts	0x008A, r30
    1148:	60 91 8a 00 	lds	r22, 0x008A
    114c:	66 23       	and	r22, r22
    114e:	09 f4       	brne	.+2      	; 0x1152 <main+0x2be>
    1150:	86 c0       	rjmp	.+268    	; 0x125e <main+0x3ca>
    1152:	60 38       	cpi	r22, 0x80	; 128
    1154:	21 f0       	breq	.+8      	; 0x115e <main+0x2ca>
    1156:	6f 3f       	cpi	r22, 0xFF	; 255
    1158:	09 f0       	breq	.+2      	; 0x115c <main+0x2c8>
    115a:	41 c0       	rjmp	.+130    	; 0x11de <main+0x34a>
    115c:	2a c0       	rjmp	.+84     	; 0x11b2 <main+0x31e>
    115e:	80 91 14 02 	lds	r24, 0x0214
    1162:	90 91 15 02 	lds	r25, 0x0215
    1166:	a0 91 16 02 	lds	r26, 0x0216
    116a:	b0 91 17 02 	lds	r27, 0x0217
    116e:	9c 01       	movw	r18, r24
    1170:	ad 01       	movw	r20, r26
    1172:	22 0f       	add	r18, r18
    1174:	33 1f       	adc	r19, r19
    1176:	44 1f       	adc	r20, r20
    1178:	55 1f       	adc	r21, r21
    117a:	28 0f       	add	r18, r24
    117c:	39 1f       	adc	r19, r25
    117e:	4a 1f       	adc	r20, r26
    1180:	5b 1f       	adc	r21, r27
    1182:	80 91 86 00 	lds	r24, 0x0086
    1186:	90 91 87 00 	lds	r25, 0x0087
    118a:	a0 91 88 00 	lds	r26, 0x0088
    118e:	b0 91 89 00 	lds	r27, 0x0089
    1192:	28 0f       	add	r18, r24
    1194:	39 1f       	adc	r19, r25
    1196:	4a 1f       	adc	r20, r26
    1198:	5b 1f       	adc	r21, r27
    119a:	20 93 1f 02 	sts	0x021F, r18
    119e:	30 93 20 02 	sts	0x0220, r19
    11a2:	40 93 21 02 	sts	0x0221, r20
    11a6:	50 93 22 02 	sts	0x0222, r21
    11aa:	84 e0       	ldi	r24, 0x04	; 4
    11ac:	80 93 1b 02 	sts	0x021B, r24
    11b0:	2e c3       	rjmp	.+1628   	; 0x180e <main+0x97a>
    11b2:	80 91 14 02 	lds	r24, 0x0214
    11b6:	90 91 15 02 	lds	r25, 0x0215
    11ba:	a0 91 16 02 	lds	r26, 0x0216
    11be:	b0 91 17 02 	lds	r27, 0x0217
    11c2:	9c 01       	movw	r18, r24
    11c4:	ad 01       	movw	r20, r26
    11c6:	f3 e0       	ldi	r31, 0x03	; 3
    11c8:	22 0f       	add	r18, r18
    11ca:	33 1f       	adc	r19, r19
    11cc:	44 1f       	adc	r20, r20
    11ce:	55 1f       	adc	r21, r21
    11d0:	fa 95       	dec	r31
    11d2:	d1 f7       	brne	.-12     	; 0x11c8 <main+0x334>
    11d4:	28 1b       	sub	r18, r24
    11d6:	39 0b       	sbc	r19, r25
    11d8:	4a 0b       	sbc	r20, r26
    11da:	5b 0b       	sbc	r21, r27
    11dc:	02 c3       	rjmp	.+1540   	; 0x17e2 <main+0x94e>
    11de:	e0 90 86 00 	lds	r14, 0x0086
    11e2:	f0 90 87 00 	lds	r15, 0x0087
    11e6:	00 91 88 00 	lds	r16, 0x0088
    11ea:	10 91 89 00 	lds	r17, 0x0089
    11ee:	20 91 14 02 	lds	r18, 0x0214
    11f2:	30 91 15 02 	lds	r19, 0x0215
    11f6:	40 91 16 02 	lds	r20, 0x0216
    11fa:	50 91 17 02 	lds	r21, 0x0217
    11fe:	67 ff       	sbrs	r22, 7
    1200:	1a c0       	rjmp	.+52     	; 0x1236 <main+0x3a2>
    1202:	da 01       	movw	r26, r20
    1204:	c9 01       	movw	r24, r18
    1206:	88 0f       	add	r24, r24
    1208:	99 1f       	adc	r25, r25
    120a:	aa 1f       	adc	r26, r26
    120c:	bb 1f       	adc	r27, r27
    120e:	82 0f       	add	r24, r18
    1210:	93 1f       	adc	r25, r19
    1212:	a4 1f       	adc	r26, r20
    1214:	b5 1f       	adc	r27, r21
    1216:	8e 0d       	add	r24, r14
    1218:	9f 1d       	adc	r25, r15
    121a:	a0 1f       	adc	r26, r16
    121c:	b1 1f       	adc	r27, r17
    121e:	80 93 1f 02 	sts	0x021F, r24
    1222:	90 93 20 02 	sts	0x0220, r25
    1226:	a0 93 21 02 	sts	0x0221, r26
    122a:	b0 93 22 02 	sts	0x0222, r27
    122e:	92 e0       	ldi	r25, 0x02	; 2
    1230:	90 93 1b 02 	sts	0x021B, r25
    1234:	10 c0       	rjmp	.+32     	; 0x1256 <main+0x3c2>
    1236:	da 01       	movw	r26, r20
    1238:	c9 01       	movw	r24, r18
    123a:	8e 0d       	add	r24, r14
    123c:	9f 1d       	adc	r25, r15
    123e:	a0 1f       	adc	r26, r16
    1240:	b1 1f       	adc	r27, r17
    1242:	80 93 1f 02 	sts	0x021F, r24
    1246:	90 93 20 02 	sts	0x0220, r25
    124a:	a0 93 21 02 	sts	0x0221, r26
    124e:	b0 93 22 02 	sts	0x0222, r27
    1252:	60 92 1b 02 	sts	0x021B, r6
    1256:	66 0f       	add	r22, r22
    1258:	60 93 8a 00 	sts	0x008A, r22
    125c:	f7 c4       	rjmp	.+2542   	; 0x1c4c <main+0xdb8>
    125e:	80 91 09 02 	lds	r24, 0x0209
    1262:	81 30       	cpi	r24, 0x01	; 1
    1264:	29 f4       	brne	.+10     	; 0x1270 <main+0x3dc>
    1266:	8e e8       	ldi	r24, 0x8E	; 142
    1268:	90 e0       	ldi	r25, 0x00	; 0
    126a:	65 e0       	ldi	r22, 0x05	; 5
    126c:	70 e0       	ldi	r23, 0x00	; 0
    126e:	06 c0       	rjmp	.+12     	; 0x127c <main+0x3e8>
    1270:	82 30       	cpi	r24, 0x02	; 2
    1272:	39 f4       	brne	.+14     	; 0x1282 <main+0x3ee>
    1274:	8e e8       	ldi	r24, 0x8E	; 142
    1276:	90 e0       	ldi	r25, 0x00	; 0
    1278:	6e e2       	ldi	r22, 0x2E	; 46
    127a:	70 e0       	ldi	r23, 0x00	; 0
    127c:	48 e2       	ldi	r20, 0x28	; 40
    127e:	50 e0       	ldi	r21, 0x00	; 0
    1280:	7f d5       	rcall	.+2814   	; 0x1d80 <__eerd_block_tn85>
    1282:	d0 93 27 02 	sts	0x0227, r29
    1286:	c0 93 26 02 	sts	0x0226, r28
    128a:	10 92 8a 00 	sts	0x008A, r1
    128e:	80 91 1e 02 	lds	r24, 0x021E
    1292:	e0 90 86 00 	lds	r14, 0x0086
    1296:	f0 90 87 00 	lds	r15, 0x0087
    129a:	00 91 88 00 	lds	r16, 0x0088
    129e:	10 91 89 00 	lds	r17, 0x0089
    12a2:	20 91 14 02 	lds	r18, 0x0214
    12a6:	30 91 15 02 	lds	r19, 0x0215
    12aa:	40 91 16 02 	lds	r20, 0x0216
    12ae:	50 91 17 02 	lds	r21, 0x0217
    12b2:	88 23       	and	r24, r24
    12b4:	d1 f4       	brne	.+52     	; 0x12ea <main+0x456>
    12b6:	da 01       	movw	r26, r20
    12b8:	c9 01       	movw	r24, r18
    12ba:	73 e0       	ldi	r23, 0x03	; 3
    12bc:	88 0f       	add	r24, r24
    12be:	99 1f       	adc	r25, r25
    12c0:	aa 1f       	adc	r26, r26
    12c2:	bb 1f       	adc	r27, r27
    12c4:	7a 95       	dec	r23
    12c6:	d1 f7       	brne	.-12     	; 0x12bc <main+0x428>
    12c8:	82 1b       	sub	r24, r18
    12ca:	93 0b       	sbc	r25, r19
    12cc:	a4 0b       	sbc	r26, r20
    12ce:	b5 0b       	sbc	r27, r21
    12d0:	8e 0d       	add	r24, r14
    12d2:	9f 1d       	adc	r25, r15
    12d4:	a0 1f       	adc	r26, r16
    12d6:	b1 1f       	adc	r27, r17
    12d8:	80 93 1f 02 	sts	0x021F, r24
    12dc:	90 93 20 02 	sts	0x0220, r25
    12e0:	a0 93 21 02 	sts	0x0221, r26
    12e4:	b0 93 22 02 	sts	0x0222, r27
    12e8:	24 c3       	rjmp	.+1608   	; 0x1932 <main+0xa9e>
    12ea:	a0 90 0a 02 	lds	r10, 0x020A
    12ee:	b0 90 0b 02 	lds	r11, 0x020B
    12f2:	c0 90 0c 02 	lds	r12, 0x020C
    12f6:	d0 90 0d 02 	lds	r13, 0x020D
    12fa:	da 01       	movw	r26, r20
    12fc:	c9 01       	movw	r24, r18
    12fe:	63 e0       	ldi	r22, 0x03	; 3
    1300:	88 0f       	add	r24, r24
    1302:	99 1f       	adc	r25, r25
    1304:	aa 1f       	adc	r26, r26
    1306:	bb 1f       	adc	r27, r27
    1308:	6a 95       	dec	r22
    130a:	d1 f7       	brne	.-12     	; 0x1300 <main+0x46c>
    130c:	82 1b       	sub	r24, r18
    130e:	93 0b       	sbc	r25, r19
    1310:	a4 0b       	sbc	r26, r20
    1312:	b5 0b       	sbc	r27, r21
    1314:	8e 0d       	add	r24, r14
    1316:	9f 1d       	adc	r25, r15
    1318:	a0 1f       	adc	r26, r16
    131a:	b1 1f       	adc	r27, r17
    131c:	a8 16       	cp	r10, r24
    131e:	b9 06       	cpc	r11, r25
    1320:	ca 06       	cpc	r12, r26
    1322:	db 06       	cpc	r13, r27
    1324:	08 f0       	brcs	.+2      	; 0x1328 <main+0x494>
    1326:	2f c3       	rjmp	.+1630   	; 0x1986 <main+0xaf2>
    1328:	80 93 1f 02 	sts	0x021F, r24
    132c:	90 93 20 02 	sts	0x0220, r25
    1330:	a0 93 21 02 	sts	0x0221, r26
    1334:	b0 93 22 02 	sts	0x0222, r27
    1338:	2e c3       	rjmp	.+1628   	; 0x1996 <main+0xb02>
    133a:	1b bc       	out	0x2b, r1	; 43
    133c:	5d c0       	rjmp	.+186    	; 0x13f8 <main+0x564>
    133e:	24 50       	subi	r18, 0x04	; 4
    1340:	25 30       	cpi	r18, 0x05	; 5
    1342:	28 f0       	brcs	.+10     	; 0x134e <main+0x4ba>
    1344:	c3 9a       	sbi	0x18, 3	; 24
    1346:	80 91 23 02 	lds	r24, 0x0223
    134a:	8b bd       	out	0x2b, r24	; 43
    134c:	02 c0       	rjmp	.+4      	; 0x1352 <main+0x4be>
    134e:	c3 9a       	sbi	0x18, 3	; 24
    1350:	1b bc       	out	0x2b, r1	; 43
    1352:	20 91 86 00 	lds	r18, 0x0086
    1356:	30 91 87 00 	lds	r19, 0x0087
    135a:	40 91 88 00 	lds	r20, 0x0088
    135e:	50 91 89 00 	lds	r21, 0x0089
    1362:	80 91 1f 02 	lds	r24, 0x021F
    1366:	90 91 20 02 	lds	r25, 0x0220
    136a:	a0 91 21 02 	lds	r26, 0x0221
    136e:	b0 91 22 02 	lds	r27, 0x0222
    1372:	82 17       	cp	r24, r18
    1374:	93 07       	cpc	r25, r19
    1376:	a4 07       	cpc	r26, r20
    1378:	b5 07       	cpc	r27, r21
    137a:	08 f0       	brcs	.+2      	; 0x137e <main+0x4ea>
    137c:	67 c4       	rjmp	.+2254   	; 0x1c4c <main+0xdb8>
    137e:	80 91 18 02 	lds	r24, 0x0218
    1382:	84 30       	cpi	r24, 0x04	; 4
    1384:	18 f0       	brcs	.+6      	; 0x138c <main+0x4f8>
    1386:	89 30       	cpi	r24, 0x09	; 9
    1388:	28 f4       	brcc	.+10     	; 0x1394 <main+0x500>
    138a:	02 c0       	rjmp	.+4      	; 0x1390 <main+0x4fc>
    138c:	c3 9a       	sbi	0x18, 3	; 24
    138e:	01 c0       	rjmp	.+2      	; 0x1392 <main+0x4fe>
    1390:	c3 98       	cbi	0x18, 3	; 24
    1392:	1b bc       	out	0x2b, r1	; 43
    1394:	20 91 14 02 	lds	r18, 0x0214
    1398:	30 91 15 02 	lds	r19, 0x0215
    139c:	40 91 16 02 	lds	r20, 0x0216
    13a0:	50 91 17 02 	lds	r21, 0x0217
    13a4:	80 91 86 00 	lds	r24, 0x0086
    13a8:	90 91 87 00 	lds	r25, 0x0087
    13ac:	a0 91 88 00 	lds	r26, 0x0088
    13b0:	b0 91 89 00 	lds	r27, 0x0089
    13b4:	28 0f       	add	r18, r24
    13b6:	39 1f       	adc	r19, r25
    13b8:	4a 1f       	adc	r20, r26
    13ba:	5b 1f       	adc	r21, r27
    13bc:	20 93 1f 02 	sts	0x021F, r18
    13c0:	30 93 20 02 	sts	0x0220, r19
    13c4:	40 93 21 02 	sts	0x0221, r20
    13c8:	50 93 22 02 	sts	0x0222, r21
    13cc:	20 92 1b 02 	sts	0x021B, r2
    13d0:	3d c4       	rjmp	.+2170   	; 0x1c4c <main+0xdb8>
    13d2:	1b bc       	out	0x2b, r1	; 43
    13d4:	86 30       	cpi	r24, 0x06	; 6
    13d6:	09 f4       	brne	.+2      	; 0x13da <main+0x546>
    13d8:	6b c1       	rjmp	.+726    	; 0x16b0 <main+0x81c>
    13da:	24 30       	cpi	r18, 0x04	; 4
    13dc:	09 f4       	brne	.+2      	; 0x13e0 <main+0x54c>
    13de:	68 c1       	rjmp	.+720    	; 0x16b0 <main+0x81c>
    13e0:	25 30       	cpi	r18, 0x05	; 5
    13e2:	09 f4       	brne	.+2      	; 0x13e6 <main+0x552>
    13e4:	65 c1       	rjmp	.+714    	; 0x16b0 <main+0x81c>
    13e6:	26 30       	cpi	r18, 0x06	; 6
    13e8:	09 f4       	brne	.+2      	; 0x13ec <main+0x558>
    13ea:	62 c1       	rjmp	.+708    	; 0x16b0 <main+0x81c>
    13ec:	27 30       	cpi	r18, 0x07	; 7
    13ee:	09 f4       	brne	.+2      	; 0x13f2 <main+0x55e>
    13f0:	5f c1       	rjmp	.+702    	; 0x16b0 <main+0x81c>
    13f2:	28 30       	cpi	r18, 0x08	; 8
    13f4:	09 f4       	brne	.+2      	; 0x13f8 <main+0x564>
    13f6:	5c c1       	rjmp	.+696    	; 0x16b0 <main+0x81c>
    13f8:	c3 9a       	sbi	0x18, 3	; 24
    13fa:	ff c3       	rjmp	.+2046   	; 0x1bfa <main+0xd66>
    13fc:	80 91 1b 02 	lds	r24, 0x021B
    1400:	85 30       	cpi	r24, 0x05	; 5
    1402:	09 f4       	brne	.+2      	; 0x1406 <main+0x572>
    1404:	54 c1       	rjmp	.+680    	; 0x16ae <main+0x81a>
    1406:	86 30       	cpi	r24, 0x06	; 6
    1408:	18 f4       	brcc	.+6      	; 0x1410 <main+0x57c>
    140a:	88 23       	and	r24, r24
    140c:	41 f0       	breq	.+16     	; 0x141e <main+0x58a>
    140e:	0a c4       	rjmp	.+2068   	; 0x1c24 <main+0xd90>
    1410:	87 30       	cpi	r24, 0x07	; 7
    1412:	09 f4       	brne	.+2      	; 0x1416 <main+0x582>
    1414:	4c c1       	rjmp	.+664    	; 0x16ae <main+0x81a>
    1416:	88 30       	cpi	r24, 0x08	; 8
    1418:	09 f0       	breq	.+2      	; 0x141c <main+0x588>
    141a:	04 c4       	rjmp	.+2056   	; 0x1c24 <main+0xd90>
    141c:	fc c0       	rjmp	.+504    	; 0x1616 <main+0x782>
    141e:	60 91 1e 02 	lds	r22, 0x021E
    1422:	66 23       	and	r22, r22
    1424:	61 f1       	breq	.+88     	; 0x147e <main+0x5ea>
    1426:	e0 90 86 00 	lds	r14, 0x0086
    142a:	f0 90 87 00 	lds	r15, 0x0087
    142e:	00 91 88 00 	lds	r16, 0x0088
    1432:	10 91 89 00 	lds	r17, 0x0089
    1436:	80 91 0a 02 	lds	r24, 0x020A
    143a:	90 91 0b 02 	lds	r25, 0x020B
    143e:	a0 91 0c 02 	lds	r26, 0x020C
    1442:	b0 91 0d 02 	lds	r27, 0x020D
    1446:	e8 16       	cp	r14, r24
    1448:	f9 06       	cpc	r15, r25
    144a:	0a 07       	cpc	r16, r26
    144c:	1b 07       	cpc	r17, r27
    144e:	b8 f0       	brcs	.+46     	; 0x147e <main+0x5ea>
    1450:	6f 31       	cpi	r22, 0x1F	; 31
    1452:	08 f0       	brcs	.+2      	; 0x1456 <main+0x5c2>
    1454:	6e e1       	ldi	r22, 0x1E	; 30
    1456:	70 e0       	ldi	r23, 0x00	; 0
    1458:	80 e0       	ldi	r24, 0x00	; 0
    145a:	90 e0       	ldi	r25, 0x00	; 0
    145c:	2a e1       	ldi	r18, 0x1A	; 26
    145e:	35 e7       	ldi	r19, 0x75	; 117
    1460:	40 e0       	ldi	r20, 0x00	; 0
    1462:	50 e0       	ldi	r21, 0x00	; 0
    1464:	08 d4       	rcall	.+2064   	; 0x1c76 <__mulsi3>
    1466:	6e 0d       	add	r22, r14
    1468:	7f 1d       	adc	r23, r15
    146a:	80 1f       	adc	r24, r16
    146c:	91 1f       	adc	r25, r17
    146e:	60 93 0a 02 	sts	0x020A, r22
    1472:	70 93 0b 02 	sts	0x020B, r23
    1476:	80 93 0c 02 	sts	0x020C, r24
    147a:	90 93 0d 02 	sts	0x020D, r25
    147e:	a0 91 26 02 	lds	r26, 0x0226
    1482:	b0 91 27 02 	lds	r27, 0x0227
    1486:	e0 e0       	ldi	r30, 0x00	; 0
    1488:	ae 38       	cpi	r26, 0x8E	; 142
    148a:	be 07       	cpc	r27, r30
    148c:	99 f4       	brne	.+38     	; 0x14b4 <main+0x620>
    148e:	80 91 8b 00 	lds	r24, 0x008B
    1492:	88 23       	and	r24, r24
    1494:	79 f4       	brne	.+30     	; 0x14b4 <main+0x620>
    1496:	80 91 8e 00 	lds	r24, 0x008E
    149a:	90 e0       	ldi	r25, 0x00	; 0
    149c:	65 e0       	ldi	r22, 0x05	; 5
    149e:	70 e0       	ldi	r23, 0x00	; 0
    14a0:	d8 d3       	rcall	.+1968   	; 0x1c52 <__mulhi3>
    14a2:	fc 01       	movw	r30, r24
    14a4:	e3 5b       	subi	r30, 0xB3	; 179
    14a6:	ff 4f       	sbci	r31, 0xFF	; 255
    14a8:	60 92 8c 00 	sts	0x008C, r6
    14ac:	e4 91       	lpm	r30, Z+
    14ae:	e0 93 8b 00 	sts	0x008B, r30
    14b2:	94 c0       	rjmp	.+296    	; 0x15dc <main+0x748>
    14b4:	20 91 8c 00 	lds	r18, 0x008C
    14b8:	8c 91       	ld	r24, X
    14ba:	90 e0       	ldi	r25, 0x00	; 0
    14bc:	65 e0       	ldi	r22, 0x05	; 5
    14be:	70 e0       	ldi	r23, 0x00	; 0
    14c0:	c8 d3       	rcall	.+1936   	; 0x1c52 <__mulhi3>
    14c2:	fc 01       	movw	r30, r24
    14c4:	e2 0f       	add	r30, r18
    14c6:	f1 1d       	adc	r31, r1
    14c8:	e3 5b       	subi	r30, 0xB3	; 179
    14ca:	ff 4f       	sbci	r31, 0xFF	; 255
    14cc:	2f 5f       	subi	r18, 0xFF	; 255
    14ce:	20 93 8c 00 	sts	0x008C, r18
    14d2:	e4 91       	lpm	r30, Z+
    14d4:	e0 93 8b 00 	sts	0x008B, r30
    14d8:	26 30       	cpi	r18, 0x06	; 6
    14da:	08 f4       	brcc	.+2      	; 0x14de <main+0x64a>
    14dc:	7f c0       	rjmp	.+254    	; 0x15dc <main+0x748>
    14de:	10 92 8c 00 	sts	0x008C, r1
    14e2:	cd 01       	movw	r24, r26
    14e4:	01 96       	adiw	r24, 0x01	; 1
    14e6:	90 93 27 02 	sts	0x0227, r25
    14ea:	80 93 26 02 	sts	0x0226, r24
    14ee:	11 96       	adiw	r26, 0x01	; 1
    14f0:	8c 91       	ld	r24, X
    14f2:	11 97       	sbiw	r26, 0x01	; 1
    14f4:	88 23       	and	r24, r24
    14f6:	09 f0       	breq	.+2      	; 0x14fa <main+0x666>
    14f8:	4d c0       	rjmp	.+154    	; 0x1594 <main+0x700>
    14fa:	80 91 09 02 	lds	r24, 0x0209
    14fe:	81 30       	cpi	r24, 0x01	; 1
    1500:	29 f4       	brne	.+10     	; 0x150c <main+0x678>
    1502:	8e e8       	ldi	r24, 0x8E	; 142
    1504:	90 e0       	ldi	r25, 0x00	; 0
    1506:	65 e0       	ldi	r22, 0x05	; 5
    1508:	70 e0       	ldi	r23, 0x00	; 0
    150a:	06 c0       	rjmp	.+12     	; 0x1518 <main+0x684>
    150c:	82 30       	cpi	r24, 0x02	; 2
    150e:	39 f4       	brne	.+14     	; 0x151e <main+0x68a>
    1510:	8e e8       	ldi	r24, 0x8E	; 142
    1512:	90 e0       	ldi	r25, 0x00	; 0
    1514:	6e e2       	ldi	r22, 0x2E	; 46
    1516:	70 e0       	ldi	r23, 0x00	; 0
    1518:	48 e2       	ldi	r20, 0x28	; 40
    151a:	50 e0       	ldi	r21, 0x00	; 0
    151c:	31 d4       	rcall	.+2146   	; 0x1d80 <__eerd_block_tn85>
    151e:	d0 93 27 02 	sts	0x0227, r29
    1522:	c0 93 26 02 	sts	0x0226, r28
    1526:	10 92 8b 00 	sts	0x008B, r1
    152a:	80 91 1e 02 	lds	r24, 0x021E
    152e:	e0 90 86 00 	lds	r14, 0x0086
    1532:	f0 90 87 00 	lds	r15, 0x0087
    1536:	00 91 88 00 	lds	r16, 0x0088
    153a:	10 91 89 00 	lds	r17, 0x0089
    153e:	88 23       	and	r24, r24
    1540:	09 f4       	brne	.+2      	; 0x1544 <main+0x6b0>
    1542:	de c1       	rjmp	.+956    	; 0x1900 <main+0xa6c>
    1544:	a0 90 0a 02 	lds	r10, 0x020A
    1548:	b0 90 0b 02 	lds	r11, 0x020B
    154c:	c0 90 0c 02 	lds	r12, 0x020C
    1550:	d0 90 0d 02 	lds	r13, 0x020D
    1554:	60 91 14 02 	lds	r22, 0x0214
    1558:	70 91 15 02 	lds	r23, 0x0215
    155c:	80 91 16 02 	lds	r24, 0x0216
    1560:	90 91 17 02 	lds	r25, 0x0217
    1564:	28 ec       	ldi	r18, 0xC8	; 200
    1566:	30 e0       	ldi	r19, 0x00	; 0
    1568:	40 e0       	ldi	r20, 0x00	; 0
    156a:	50 e0       	ldi	r21, 0x00	; 0
    156c:	84 d3       	rcall	.+1800   	; 0x1c76 <__mulsi3>
    156e:	6e 0d       	add	r22, r14
    1570:	7f 1d       	adc	r23, r15
    1572:	80 1f       	adc	r24, r16
    1574:	91 1f       	adc	r25, r17
    1576:	a6 16       	cp	r10, r22
    1578:	b7 06       	cpc	r11, r23
    157a:	c8 06       	cpc	r12, r24
    157c:	d9 06       	cpc	r13, r25
    157e:	08 f4       	brcc	.+2      	; 0x1582 <main+0x6ee>
    1580:	d0 c1       	rjmp	.+928    	; 0x1922 <main+0xa8e>
    1582:	a0 92 1f 02 	sts	0x021F, r10
    1586:	b0 92 20 02 	sts	0x0220, r11
    158a:	c0 92 21 02 	sts	0x0221, r12
    158e:	d0 92 22 02 	sts	0x0222, r13
    1592:	cf c1       	rjmp	.+926    	; 0x1932 <main+0xa9e>
    1594:	60 91 14 02 	lds	r22, 0x0214
    1598:	70 91 15 02 	lds	r23, 0x0215
    159c:	80 91 16 02 	lds	r24, 0x0216
    15a0:	90 91 17 02 	lds	r25, 0x0217
    15a4:	24 e1       	ldi	r18, 0x14	; 20
    15a6:	30 e0       	ldi	r19, 0x00	; 0
    15a8:	40 e0       	ldi	r20, 0x00	; 0
    15aa:	50 e0       	ldi	r21, 0x00	; 0
    15ac:	64 d3       	rcall	.+1736   	; 0x1c76 <__mulsi3>
    15ae:	9b 01       	movw	r18, r22
    15b0:	ac 01       	movw	r20, r24
    15b2:	80 91 86 00 	lds	r24, 0x0086
    15b6:	90 91 87 00 	lds	r25, 0x0087
    15ba:	a0 91 88 00 	lds	r26, 0x0088
    15be:	b0 91 89 00 	lds	r27, 0x0089
    15c2:	28 0f       	add	r18, r24
    15c4:	39 1f       	adc	r19, r25
    15c6:	4a 1f       	adc	r20, r26
    15c8:	5b 1f       	adc	r21, r27
    15ca:	20 93 1f 02 	sts	0x021F, r18
    15ce:	30 93 20 02 	sts	0x0220, r19
    15d2:	40 93 21 02 	sts	0x0221, r20
    15d6:	50 93 22 02 	sts	0x0222, r21
    15da:	3e c2       	rjmp	.+1148   	; 0x1a58 <main+0xbc4>
    15dc:	20 91 14 02 	lds	r18, 0x0214
    15e0:	30 91 15 02 	lds	r19, 0x0215
    15e4:	40 91 16 02 	lds	r20, 0x0216
    15e8:	50 91 17 02 	lds	r21, 0x0217
    15ec:	80 91 86 00 	lds	r24, 0x0086
    15f0:	90 91 87 00 	lds	r25, 0x0087
    15f4:	a0 91 88 00 	lds	r26, 0x0088
    15f8:	b0 91 89 00 	lds	r27, 0x0089
    15fc:	28 0f       	add	r18, r24
    15fe:	39 1f       	adc	r19, r25
    1600:	4a 1f       	adc	r20, r26
    1602:	5b 1f       	adc	r21, r27
    1604:	20 93 1f 02 	sts	0x021F, r18
    1608:	30 93 20 02 	sts	0x0220, r19
    160c:	40 93 21 02 	sts	0x0221, r20
    1610:	50 93 22 02 	sts	0x0222, r21
    1614:	49 c0       	rjmp	.+146    	; 0x16a8 <main+0x814>
    1616:	20 91 8d 00 	lds	r18, 0x008D
    161a:	e2 2f       	mov	r30, r18
    161c:	f0 e0       	ldi	r31, 0x00	; 0
    161e:	e4 58       	subi	r30, 0x84	; 132
    1620:	ff 4f       	sbci	r31, 0xFF	; 255
    1622:	80 81       	ld	r24, Z
    1624:	8b bd       	out	0x2b, r24	; 43
    1626:	80 91 8b 00 	lds	r24, 0x008B
    162a:	90 e0       	ldi	r25, 0x00	; 0
    162c:	02 c0       	rjmp	.+4      	; 0x1632 <main+0x79e>
    162e:	95 95       	asr	r25
    1630:	87 95       	ror	r24
    1632:	2a 95       	dec	r18
    1634:	e2 f7       	brpl	.-8      	; 0x162e <main+0x79a>
    1636:	80 ff       	sbrs	r24, 0
    1638:	02 c0       	rjmp	.+4      	; 0x163e <main+0x7aa>
    163a:	c3 9a       	sbi	0x18, 3	; 24
    163c:	01 c0       	rjmp	.+2      	; 0x1640 <main+0x7ac>
    163e:	c3 98       	cbi	0x18, 3	; 24
    1640:	20 91 86 00 	lds	r18, 0x0086
    1644:	30 91 87 00 	lds	r19, 0x0087
    1648:	40 91 88 00 	lds	r20, 0x0088
    164c:	50 91 89 00 	lds	r21, 0x0089
    1650:	80 91 1f 02 	lds	r24, 0x021F
    1654:	90 91 20 02 	lds	r25, 0x0220
    1658:	a0 91 21 02 	lds	r26, 0x0221
    165c:	b0 91 22 02 	lds	r27, 0x0222
    1660:	82 17       	cp	r24, r18
    1662:	93 07       	cpc	r25, r19
    1664:	a4 07       	cpc	r26, r20
    1666:	b5 07       	cpc	r27, r21
    1668:	08 f0       	brcs	.+2      	; 0x166c <main+0x7d8>
    166a:	f0 c2       	rjmp	.+1504   	; 0x1c4c <main+0xdb8>
    166c:	80 91 8d 00 	lds	r24, 0x008D
    1670:	8f 5f       	subi	r24, 0xFF	; 255
    1672:	80 93 8d 00 	sts	0x008D, r24
    1676:	88 30       	cpi	r24, 0x08	; 8
    1678:	18 f0       	brcs	.+6      	; 0x1680 <main+0x7ec>
    167a:	10 92 8d 00 	sts	0x008D, r1
    167e:	d2 c2       	rjmp	.+1444   	; 0x1c24 <main+0xd90>
    1680:	80 91 14 02 	lds	r24, 0x0214
    1684:	90 91 15 02 	lds	r25, 0x0215
    1688:	a0 91 16 02 	lds	r26, 0x0216
    168c:	b0 91 17 02 	lds	r27, 0x0217
    1690:	82 0f       	add	r24, r18
    1692:	93 1f       	adc	r25, r19
    1694:	a4 1f       	adc	r26, r20
    1696:	b5 1f       	adc	r27, r21
    1698:	80 93 1f 02 	sts	0x021F, r24
    169c:	90 93 20 02 	sts	0x0220, r25
    16a0:	a0 93 21 02 	sts	0x0221, r26
    16a4:	b0 93 22 02 	sts	0x0222, r27
    16a8:	90 92 1b 02 	sts	0x021B, r9
    16ac:	cf c2       	rjmp	.+1438   	; 0x1c4c <main+0xdb8>
    16ae:	1b bc       	out	0x2b, r1	; 43
    16b0:	c3 98       	cbi	0x18, 3	; 24
    16b2:	a3 c2       	rjmp	.+1350   	; 0x1bfa <main+0xd66>
    16b4:	80 91 1b 02 	lds	r24, 0x021B
    16b8:	85 30       	cpi	r24, 0x05	; 5
    16ba:	09 f4       	brne	.+2      	; 0x16be <main+0x82a>
    16bc:	dd c1       	rjmp	.+954    	; 0x1a78 <main+0xbe4>
    16be:	86 30       	cpi	r24, 0x06	; 6
    16c0:	18 f4       	brcc	.+6      	; 0x16c8 <main+0x834>
    16c2:	88 23       	and	r24, r24
    16c4:	41 f0       	breq	.+16     	; 0x16d6 <main+0x842>
    16c6:	ae c2       	rjmp	.+1372   	; 0x1c24 <main+0xd90>
    16c8:	87 30       	cpi	r24, 0x07	; 7
    16ca:	09 f4       	brne	.+2      	; 0x16ce <main+0x83a>
    16cc:	d5 c1       	rjmp	.+938    	; 0x1a78 <main+0xbe4>
    16ce:	88 30       	cpi	r24, 0x08	; 8
    16d0:	09 f0       	breq	.+2      	; 0x16d4 <main+0x840>
    16d2:	a8 c2       	rjmp	.+1360   	; 0x1c24 <main+0xd90>
    16d4:	63 c1       	rjmp	.+710    	; 0x199c <main+0xb08>
    16d6:	c3 98       	cbi	0x18, 3	; 24
    16d8:	1b bc       	out	0x2b, r1	; 43
    16da:	60 91 1e 02 	lds	r22, 0x021E
    16de:	66 23       	and	r22, r22
    16e0:	61 f1       	breq	.+88     	; 0x173a <main+0x8a6>
    16e2:	e0 90 86 00 	lds	r14, 0x0086
    16e6:	f0 90 87 00 	lds	r15, 0x0087
    16ea:	00 91 88 00 	lds	r16, 0x0088
    16ee:	10 91 89 00 	lds	r17, 0x0089
    16f2:	80 91 0a 02 	lds	r24, 0x020A
    16f6:	90 91 0b 02 	lds	r25, 0x020B
    16fa:	a0 91 0c 02 	lds	r26, 0x020C
    16fe:	b0 91 0d 02 	lds	r27, 0x020D
    1702:	e8 16       	cp	r14, r24
    1704:	f9 06       	cpc	r15, r25
    1706:	0a 07       	cpc	r16, r26
    1708:	1b 07       	cpc	r17, r27
    170a:	b8 f0       	brcs	.+46     	; 0x173a <main+0x8a6>
    170c:	6f 31       	cpi	r22, 0x1F	; 31
    170e:	08 f0       	brcs	.+2      	; 0x1712 <main+0x87e>
    1710:	6e e1       	ldi	r22, 0x1E	; 30
    1712:	70 e0       	ldi	r23, 0x00	; 0
    1714:	80 e0       	ldi	r24, 0x00	; 0
    1716:	90 e0       	ldi	r25, 0x00	; 0
    1718:	2a e1       	ldi	r18, 0x1A	; 26
    171a:	35 e7       	ldi	r19, 0x75	; 117
    171c:	40 e0       	ldi	r20, 0x00	; 0
    171e:	50 e0       	ldi	r21, 0x00	; 0
    1720:	aa d2       	rcall	.+1364   	; 0x1c76 <__mulsi3>
    1722:	6e 0d       	add	r22, r14
    1724:	7f 1d       	adc	r23, r15
    1726:	80 1f       	adc	r24, r16
    1728:	91 1f       	adc	r25, r17
    172a:	60 93 0a 02 	sts	0x020A, r22
    172e:	70 93 0b 02 	sts	0x020B, r23
    1732:	80 93 0c 02 	sts	0x020C, r24
    1736:	90 93 0d 02 	sts	0x020D, r25
    173a:	80 91 26 02 	lds	r24, 0x0226
    173e:	90 91 27 02 	lds	r25, 0x0227
    1742:	f0 e0       	ldi	r31, 0x00	; 0
    1744:	8e 38       	cpi	r24, 0x8E	; 142
    1746:	9f 07       	cpc	r25, r31
    1748:	61 f4       	brne	.+24     	; 0x1762 <main+0x8ce>
    174a:	80 91 8a 00 	lds	r24, 0x008A
    174e:	88 23       	and	r24, r24
    1750:	41 f4       	brne	.+16     	; 0x1762 <main+0x8ce>
    1752:	e0 91 8e 00 	lds	r30, 0x008E
    1756:	f0 e0       	ldi	r31, 0x00	; 0
    1758:	ee 58       	subi	r30, 0x8E	; 142
    175a:	ff 4f       	sbci	r31, 0xFF	; 255
    175c:	e4 91       	lpm	r30, Z+
    175e:	e0 93 8a 00 	sts	0x008A, r30
    1762:	80 91 8a 00 	lds	r24, 0x008A
    1766:	88 23       	and	r24, r24
    1768:	09 f4       	brne	.+2      	; 0x176c <main+0x8d8>
    176a:	a6 c0       	rjmp	.+332    	; 0x18b8 <main+0xa24>
    176c:	80 38       	cpi	r24, 0x80	; 128
    176e:	21 f0       	breq	.+8      	; 0x1778 <main+0x8e4>
    1770:	8f 3f       	cpi	r24, 0xFF	; 255
    1772:	09 f0       	breq	.+2      	; 0x1776 <main+0x8e2>
    1774:	63 c0       	rjmp	.+198    	; 0x183c <main+0x9a8>
    1776:	26 c0       	rjmp	.+76     	; 0x17c4 <main+0x930>
    1778:	60 91 14 02 	lds	r22, 0x0214
    177c:	70 91 15 02 	lds	r23, 0x0215
    1780:	80 91 16 02 	lds	r24, 0x0216
    1784:	90 91 17 02 	lds	r25, 0x0217
    1788:	2c e3       	ldi	r18, 0x3C	; 60
    178a:	30 e0       	ldi	r19, 0x00	; 0
    178c:	40 e0       	ldi	r20, 0x00	; 0
    178e:	50 e0       	ldi	r21, 0x00	; 0
    1790:	72 d2       	rcall	.+1252   	; 0x1c76 <__mulsi3>
    1792:	9b 01       	movw	r18, r22
    1794:	ac 01       	movw	r20, r24
    1796:	80 91 86 00 	lds	r24, 0x0086
    179a:	90 91 87 00 	lds	r25, 0x0087
    179e:	a0 91 88 00 	lds	r26, 0x0088
    17a2:	b0 91 89 00 	lds	r27, 0x0089
    17a6:	28 0f       	add	r18, r24
    17a8:	39 1f       	adc	r19, r25
    17aa:	4a 1f       	adc	r20, r26
    17ac:	5b 1f       	adc	r21, r27
    17ae:	20 93 1f 02 	sts	0x021F, r18
    17b2:	30 93 20 02 	sts	0x0220, r19
    17b6:	40 93 21 02 	sts	0x0221, r20
    17ba:	50 93 22 02 	sts	0x0222, r21
    17be:	70 92 1b 02 	sts	0x021B, r7
    17c2:	25 c0       	rjmp	.+74     	; 0x180e <main+0x97a>
    17c4:	60 91 14 02 	lds	r22, 0x0214
    17c8:	70 91 15 02 	lds	r23, 0x0215
    17cc:	80 91 16 02 	lds	r24, 0x0216
    17d0:	90 91 17 02 	lds	r25, 0x0217
    17d4:	28 ec       	ldi	r18, 0xC8	; 200
    17d6:	30 e0       	ldi	r19, 0x00	; 0
    17d8:	40 e0       	ldi	r20, 0x00	; 0
    17da:	50 e0       	ldi	r21, 0x00	; 0
    17dc:	4c d2       	rcall	.+1176   	; 0x1c76 <__mulsi3>
    17de:	9b 01       	movw	r18, r22
    17e0:	ac 01       	movw	r20, r24
    17e2:	80 91 86 00 	lds	r24, 0x0086
    17e6:	90 91 87 00 	lds	r25, 0x0087
    17ea:	a0 91 88 00 	lds	r26, 0x0088
    17ee:	b0 91 89 00 	lds	r27, 0x0089
    17f2:	28 0f       	add	r18, r24
    17f4:	39 1f       	adc	r19, r25
    17f6:	4a 1f       	adc	r20, r26
    17f8:	5b 1f       	adc	r21, r27
    17fa:	20 93 1f 02 	sts	0x021F, r18
    17fe:	30 93 20 02 	sts	0x0220, r19
    1802:	40 93 21 02 	sts	0x0221, r20
    1806:	50 93 22 02 	sts	0x0222, r21
    180a:	80 92 1b 02 	sts	0x021B, r8
    180e:	e0 91 26 02 	lds	r30, 0x0226
    1812:	f0 91 27 02 	lds	r31, 0x0227
    1816:	cf 01       	movw	r24, r30
    1818:	01 96       	adiw	r24, 0x01	; 1
    181a:	90 93 27 02 	sts	0x0227, r25
    181e:	80 93 26 02 	sts	0x0226, r24
    1822:	e1 81       	ldd	r30, Z+1	; 0x01
    1824:	ee 23       	and	r30, r30
    1826:	19 f4       	brne	.+6      	; 0x182e <main+0x99a>
    1828:	10 92 8a 00 	sts	0x008A, r1
    182c:	0f c2       	rjmp	.+1054   	; 0x1c4c <main+0xdb8>
    182e:	f0 e0       	ldi	r31, 0x00	; 0
    1830:	ee 58       	subi	r30, 0x8E	; 142
    1832:	ff 4f       	sbci	r31, 0xFF	; 255
    1834:	e4 91       	lpm	r30, Z+
    1836:	e0 93 8a 00 	sts	0x008A, r30
    183a:	08 c2       	rjmp	.+1040   	; 0x1c4c <main+0xdb8>
    183c:	87 ff       	sbrs	r24, 7
    183e:	05 c0       	rjmp	.+10     	; 0x184a <main+0x9b6>
    1840:	81 e3       	ldi	r24, 0x31	; 49
    1842:	91 e0       	ldi	r25, 0x01	; 1
    1844:	6b ef       	ldi	r22, 0xFB	; 251
    1846:	70 e0       	ldi	r23, 0x00	; 0
    1848:	04 c0       	rjmp	.+8      	; 0x1852 <main+0x9be>
    184a:	81 e3       	ldi	r24, 0x31	; 49
    184c:	91 e0       	ldi	r25, 0x01	; 1
    184e:	62 e1       	ldi	r22, 0x12	; 18
    1850:	71 e0       	ldi	r23, 0x01	; 1
    1852:	46 e1       	ldi	r20, 0x16	; 22
    1854:	50 e0       	ldi	r21, 0x00	; 0
    1856:	94 d2       	rcall	.+1320   	; 0x1d80 <__eerd_block_tn85>
    1858:	21 e3       	ldi	r18, 0x31	; 49
    185a:	31 e0       	ldi	r19, 0x01	; 1
    185c:	30 93 1d 02 	sts	0x021D, r19
    1860:	20 93 1c 02 	sts	0x021C, r18
    1864:	10 92 8c 00 	sts	0x008C, r1
    1868:	80 91 31 01 	lds	r24, 0x0131
    186c:	80 93 8b 00 	sts	0x008B, r24
    1870:	20 91 14 02 	lds	r18, 0x0214
    1874:	30 91 15 02 	lds	r19, 0x0215
    1878:	40 91 16 02 	lds	r20, 0x0216
    187c:	50 91 17 02 	lds	r21, 0x0217
    1880:	80 91 86 00 	lds	r24, 0x0086
    1884:	90 91 87 00 	lds	r25, 0x0087
    1888:	a0 91 88 00 	lds	r26, 0x0088
    188c:	b0 91 89 00 	lds	r27, 0x0089
    1890:	28 0f       	add	r18, r24
    1892:	39 1f       	adc	r19, r25
    1894:	4a 1f       	adc	r20, r26
    1896:	5b 1f       	adc	r21, r27
    1898:	20 93 1f 02 	sts	0x021F, r18
    189c:	30 93 20 02 	sts	0x0220, r19
    18a0:	40 93 21 02 	sts	0x0221, r20
    18a4:	50 93 22 02 	sts	0x0222, r21
    18a8:	90 92 1b 02 	sts	0x021B, r9
    18ac:	80 91 8a 00 	lds	r24, 0x008A
    18b0:	88 0f       	add	r24, r24
    18b2:	80 93 8a 00 	sts	0x008A, r24
    18b6:	ca c1       	rjmp	.+916    	; 0x1c4c <main+0xdb8>
    18b8:	80 91 09 02 	lds	r24, 0x0209
    18bc:	81 30       	cpi	r24, 0x01	; 1
    18be:	29 f4       	brne	.+10     	; 0x18ca <main+0xa36>
    18c0:	8e e8       	ldi	r24, 0x8E	; 142
    18c2:	90 e0       	ldi	r25, 0x00	; 0
    18c4:	65 e0       	ldi	r22, 0x05	; 5
    18c6:	70 e0       	ldi	r23, 0x00	; 0
    18c8:	06 c0       	rjmp	.+12     	; 0x18d6 <main+0xa42>
    18ca:	82 30       	cpi	r24, 0x02	; 2
    18cc:	39 f4       	brne	.+14     	; 0x18dc <main+0xa48>
    18ce:	8e e8       	ldi	r24, 0x8E	; 142
    18d0:	90 e0       	ldi	r25, 0x00	; 0
    18d2:	6e e2       	ldi	r22, 0x2E	; 46
    18d4:	70 e0       	ldi	r23, 0x00	; 0
    18d6:	48 e2       	ldi	r20, 0x28	; 40
    18d8:	50 e0       	ldi	r21, 0x00	; 0
    18da:	52 d2       	rcall	.+1188   	; 0x1d80 <__eerd_block_tn85>
    18dc:	d0 93 27 02 	sts	0x0227, r29
    18e0:	c0 93 26 02 	sts	0x0226, r28
    18e4:	10 92 8a 00 	sts	0x008A, r1
    18e8:	80 91 1e 02 	lds	r24, 0x021E
    18ec:	e0 90 86 00 	lds	r14, 0x0086
    18f0:	f0 90 87 00 	lds	r15, 0x0087
    18f4:	00 91 88 00 	lds	r16, 0x0088
    18f8:	10 91 89 00 	lds	r17, 0x0089
    18fc:	88 23       	and	r24, r24
    18fe:	e1 f4       	brne	.+56     	; 0x1938 <main+0xaa4>
    1900:	60 91 14 02 	lds	r22, 0x0214
    1904:	70 91 15 02 	lds	r23, 0x0215
    1908:	80 91 16 02 	lds	r24, 0x0216
    190c:	90 91 17 02 	lds	r25, 0x0217
    1910:	28 ec       	ldi	r18, 0xC8	; 200
    1912:	30 e0       	ldi	r19, 0x00	; 0
    1914:	40 e0       	ldi	r20, 0x00	; 0
    1916:	50 e0       	ldi	r21, 0x00	; 0
    1918:	ae d1       	rcall	.+860    	; 0x1c76 <__mulsi3>
    191a:	6e 0d       	add	r22, r14
    191c:	7f 1d       	adc	r23, r15
    191e:	80 1f       	adc	r24, r16
    1920:	91 1f       	adc	r25, r17
    1922:	60 93 1f 02 	sts	0x021F, r22
    1926:	70 93 20 02 	sts	0x0220, r23
    192a:	80 93 21 02 	sts	0x0221, r24
    192e:	90 93 22 02 	sts	0x0222, r25
    1932:	80 92 1b 02 	sts	0x021B, r8
    1936:	8a c1       	rjmp	.+788    	; 0x1c4c <main+0xdb8>
    1938:	a0 90 0a 02 	lds	r10, 0x020A
    193c:	b0 90 0b 02 	lds	r11, 0x020B
    1940:	c0 90 0c 02 	lds	r12, 0x020C
    1944:	d0 90 0d 02 	lds	r13, 0x020D
    1948:	60 91 14 02 	lds	r22, 0x0214
    194c:	70 91 15 02 	lds	r23, 0x0215
    1950:	80 91 16 02 	lds	r24, 0x0216
    1954:	90 91 17 02 	lds	r25, 0x0217
    1958:	28 ec       	ldi	r18, 0xC8	; 200
    195a:	30 e0       	ldi	r19, 0x00	; 0
    195c:	40 e0       	ldi	r20, 0x00	; 0
    195e:	50 e0       	ldi	r21, 0x00	; 0
    1960:	8a d1       	rcall	.+788    	; 0x1c76 <__mulsi3>
    1962:	6e 0d       	add	r22, r14
    1964:	7f 1d       	adc	r23, r15
    1966:	80 1f       	adc	r24, r16
    1968:	91 1f       	adc	r25, r17
    196a:	a6 16       	cp	r10, r22
    196c:	b7 06       	cpc	r11, r23
    196e:	c8 06       	cpc	r12, r24
    1970:	d9 06       	cpc	r13, r25
    1972:	48 f4       	brcc	.+18     	; 0x1986 <main+0xaf2>
    1974:	60 93 1f 02 	sts	0x021F, r22
    1978:	70 93 20 02 	sts	0x0220, r23
    197c:	80 93 21 02 	sts	0x0221, r24
    1980:	90 93 22 02 	sts	0x0222, r25
    1984:	08 c0       	rjmp	.+16     	; 0x1996 <main+0xb02>
    1986:	a0 92 1f 02 	sts	0x021F, r10
    198a:	b0 92 20 02 	sts	0x0220, r11
    198e:	c0 92 21 02 	sts	0x0221, r12
    1992:	d0 92 22 02 	sts	0x0222, r13
    1996:	50 92 1b 02 	sts	0x021B, r5
    199a:	58 c1       	rjmp	.+688    	; 0x1c4c <main+0xdb8>
    199c:	20 91 8d 00 	lds	r18, 0x008D
    19a0:	e2 2f       	mov	r30, r18
    19a2:	f0 e0       	ldi	r31, 0x00	; 0
    19a4:	e4 58       	subi	r30, 0x84	; 132
    19a6:	ff 4f       	sbci	r31, 0xFF	; 255
    19a8:	80 81       	ld	r24, Z
    19aa:	8b bd       	out	0x2b, r24	; 43
    19ac:	80 91 8b 00 	lds	r24, 0x008B
    19b0:	90 e0       	ldi	r25, 0x00	; 0
    19b2:	02 c0       	rjmp	.+4      	; 0x19b8 <main+0xb24>
    19b4:	95 95       	asr	r25
    19b6:	87 95       	ror	r24
    19b8:	2a 95       	dec	r18
    19ba:	e2 f7       	brpl	.-8      	; 0x19b4 <main+0xb20>
    19bc:	80 ff       	sbrs	r24, 0
    19be:	02 c0       	rjmp	.+4      	; 0x19c4 <main+0xb30>
    19c0:	c3 9a       	sbi	0x18, 3	; 24
    19c2:	01 c0       	rjmp	.+2      	; 0x19c6 <main+0xb32>
    19c4:	c3 98       	cbi	0x18, 3	; 24
    19c6:	e0 90 86 00 	lds	r14, 0x0086
    19ca:	f0 90 87 00 	lds	r15, 0x0087
    19ce:	00 91 88 00 	lds	r16, 0x0088
    19d2:	10 91 89 00 	lds	r17, 0x0089
    19d6:	80 91 1f 02 	lds	r24, 0x021F
    19da:	90 91 20 02 	lds	r25, 0x0220
    19de:	a0 91 21 02 	lds	r26, 0x0221
    19e2:	b0 91 22 02 	lds	r27, 0x0222
    19e6:	8e 15       	cp	r24, r14
    19e8:	9f 05       	cpc	r25, r15
    19ea:	a0 07       	cpc	r26, r16
    19ec:	b1 07       	cpc	r27, r17
    19ee:	08 f0       	brcs	.+2      	; 0x19f2 <main+0xb5e>
    19f0:	2d c1       	rjmp	.+602    	; 0x1c4c <main+0xdb8>
    19f2:	80 91 8d 00 	lds	r24, 0x008D
    19f6:	8f 5f       	subi	r24, 0xFF	; 255
    19f8:	80 93 8d 00 	sts	0x008D, r24
    19fc:	88 30       	cpi	r24, 0x08	; 8
    19fe:	78 f1       	brcs	.+94     	; 0x1a5e <main+0xbca>
    1a00:	10 92 8d 00 	sts	0x008D, r1
    1a04:	e0 91 1c 02 	lds	r30, 0x021C
    1a08:	f0 91 1d 02 	lds	r31, 0x021D
    1a0c:	cf 01       	movw	r24, r30
    1a0e:	01 96       	adiw	r24, 0x01	; 1
    1a10:	90 93 1d 02 	sts	0x021D, r25
    1a14:	80 93 1c 02 	sts	0x021C, r24
    1a18:	81 81       	ldd	r24, Z+1	; 0x01
    1a1a:	80 93 8b 00 	sts	0x008B, r24
    1a1e:	80 38       	cpi	r24, 0x80	; 128
    1a20:	f1 f4       	brne	.+60     	; 0x1a5e <main+0xbca>
    1a22:	10 92 8c 00 	sts	0x008C, r1
    1a26:	60 91 14 02 	lds	r22, 0x0214
    1a2a:	70 91 15 02 	lds	r23, 0x0215
    1a2e:	80 91 16 02 	lds	r24, 0x0216
    1a32:	90 91 17 02 	lds	r25, 0x0217
    1a36:	24 e1       	ldi	r18, 0x14	; 20
    1a38:	30 e0       	ldi	r19, 0x00	; 0
    1a3a:	40 e0       	ldi	r20, 0x00	; 0
    1a3c:	50 e0       	ldi	r21, 0x00	; 0
    1a3e:	1b d1       	rcall	.+566    	; 0x1c76 <__mulsi3>
    1a40:	6e 0d       	add	r22, r14
    1a42:	7f 1d       	adc	r23, r15
    1a44:	80 1f       	adc	r24, r16
    1a46:	91 1f       	adc	r25, r17
    1a48:	60 93 1f 02 	sts	0x021F, r22
    1a4c:	70 93 20 02 	sts	0x0220, r23
    1a50:	80 93 21 02 	sts	0x0221, r24
    1a54:	90 93 22 02 	sts	0x0222, r25
    1a58:	70 92 1b 02 	sts	0x021B, r7
    1a5c:	f7 c0       	rjmp	.+494    	; 0x1c4c <main+0xdb8>
    1a5e:	80 91 14 02 	lds	r24, 0x0214
    1a62:	90 91 15 02 	lds	r25, 0x0215
    1a66:	a0 91 16 02 	lds	r26, 0x0216
    1a6a:	b0 91 17 02 	lds	r27, 0x0217
    1a6e:	8e 0d       	add	r24, r14
    1a70:	9f 1d       	adc	r25, r15
    1a72:	a0 1f       	adc	r26, r16
    1a74:	b1 1f       	adc	r27, r17
    1a76:	10 ce       	rjmp	.-992    	; 0x1698 <main+0x804>
    1a78:	c3 98       	cbi	0x18, 3	; 24
    1a7a:	1b bc       	out	0x2b, r1	; 43
    1a7c:	be c0       	rjmp	.+380    	; 0x1bfa <main+0xd66>
    1a7e:	80 91 1b 02 	lds	r24, 0x021B
    1a82:	88 23       	and	r24, r24
    1a84:	21 f0       	breq	.+8      	; 0x1a8e <main+0xbfa>
    1a86:	8b 30       	cpi	r24, 0x0B	; 11
    1a88:	09 f0       	breq	.+2      	; 0x1a8c <main+0xbf8>
    1a8a:	cc c0       	rjmp	.+408    	; 0x1c24 <main+0xd90>
    1a8c:	18 c0       	rjmp	.+48     	; 0x1abe <main+0xc2a>
    1a8e:	c3 98       	cbi	0x18, 3	; 24
    1a90:	20 91 86 00 	lds	r18, 0x0086
    1a94:	30 91 87 00 	lds	r19, 0x0087
    1a98:	40 91 88 00 	lds	r20, 0x0088
    1a9c:	50 91 89 00 	lds	r21, 0x0089
    1aa0:	80 91 1f 02 	lds	r24, 0x021F
    1aa4:	90 91 20 02 	lds	r25, 0x0220
    1aa8:	a0 91 21 02 	lds	r26, 0x0221
    1aac:	b0 91 22 02 	lds	r27, 0x0222
    1ab0:	82 17       	cp	r24, r18
    1ab2:	93 07       	cpc	r25, r19
    1ab4:	a4 07       	cpc	r26, r20
    1ab6:	b5 07       	cpc	r27, r21
    1ab8:	08 f0       	brcs	.+2      	; 0x1abc <main+0xc28>
    1aba:	c8 c0       	rjmp	.+400    	; 0x1c4c <main+0xdb8>
    1abc:	56 c0       	rjmp	.+172    	; 0x1b6a <main+0xcd6>
    1abe:	c3 9a       	sbi	0x18, 3	; 24
    1ac0:	e0 91 26 02 	lds	r30, 0x0226
    1ac4:	f0 91 27 02 	lds	r31, 0x0227
    1ac8:	80 81       	ld	r24, Z
    1aca:	81 33       	cpi	r24, 0x31	; 49
    1acc:	61 f0       	breq	.+24     	; 0x1ae6 <main+0xc52>
    1ace:	82 33       	cpi	r24, 0x32	; 50
    1ad0:	18 f4       	brcc	.+6      	; 0x1ad8 <main+0xc44>
    1ad2:	80 33       	cpi	r24, 0x30	; 48
    1ad4:	81 f4       	brne	.+32     	; 0x1af6 <main+0xc62>
    1ad6:	05 c0       	rjmp	.+10     	; 0x1ae2 <main+0xc4e>
    1ad8:	82 33       	cpi	r24, 0x32	; 50
    1ada:	41 f0       	breq	.+16     	; 0x1aec <main+0xc58>
    1adc:	83 33       	cpi	r24, 0x33	; 51
    1ade:	59 f4       	brne	.+22     	; 0x1af6 <main+0xc62>
    1ae0:	08 c0       	rjmp	.+16     	; 0x1af2 <main+0xc5e>
    1ae2:	1b bc       	out	0x2b, r1	; 43
    1ae4:	08 c0       	rjmp	.+16     	; 0x1af6 <main+0xc62>
    1ae6:	37 e1       	ldi	r19, 0x17	; 23
    1ae8:	3b bd       	out	0x2b, r19	; 43
    1aea:	05 c0       	rjmp	.+10     	; 0x1af6 <main+0xc62>
    1aec:	85 e3       	ldi	r24, 0x35	; 53
    1aee:	8b bd       	out	0x2b, r24	; 43
    1af0:	02 c0       	rjmp	.+4      	; 0x1af6 <main+0xc62>
    1af2:	95 e5       	ldi	r25, 0x55	; 85
    1af4:	9b bd       	out	0x2b, r25	; 43
    1af6:	20 91 86 00 	lds	r18, 0x0086
    1afa:	30 91 87 00 	lds	r19, 0x0087
    1afe:	40 91 88 00 	lds	r20, 0x0088
    1b02:	50 91 89 00 	lds	r21, 0x0089
    1b06:	80 91 1f 02 	lds	r24, 0x021F
    1b0a:	90 91 20 02 	lds	r25, 0x0220
    1b0e:	a0 91 21 02 	lds	r26, 0x0221
    1b12:	b0 91 22 02 	lds	r27, 0x0222
    1b16:	82 17       	cp	r24, r18
    1b18:	93 07       	cpc	r25, r19
    1b1a:	a4 07       	cpc	r26, r20
    1b1c:	b5 07       	cpc	r27, r21
    1b1e:	08 f0       	brcs	.+2      	; 0x1b22 <main+0xc8e>
    1b20:	95 c0       	rjmp	.+298    	; 0x1c4c <main+0xdb8>
    1b22:	e0 91 26 02 	lds	r30, 0x0226
    1b26:	f0 91 27 02 	lds	r31, 0x0227
    1b2a:	cf 01       	movw	r24, r30
    1b2c:	01 96       	adiw	r24, 0x01	; 1
    1b2e:	90 93 27 02 	sts	0x0227, r25
    1b32:	80 93 26 02 	sts	0x0226, r24
    1b36:	81 81       	ldd	r24, Z+1	; 0x01
    1b38:	88 23       	and	r24, r24
    1b3a:	b9 f4       	brne	.+46     	; 0x1b6a <main+0xcd6>
    1b3c:	8e e8       	ldi	r24, 0x8E	; 142
    1b3e:	90 e0       	ldi	r25, 0x00	; 0
    1b40:	67 e5       	ldi	r22, 0x57	; 87
    1b42:	70 e0       	ldi	r23, 0x00	; 0
    1b44:	42 ea       	ldi	r20, 0xA2	; 162
    1b46:	50 e0       	ldi	r21, 0x00	; 0
    1b48:	1b d1       	rcall	.+566    	; 0x1d80 <__eerd_block_tn85>
    1b4a:	d0 93 27 02 	sts	0x0227, r29
    1b4e:	c0 93 26 02 	sts	0x0226, r28
    1b52:	8f ef       	ldi	r24, 0xFF	; 255
    1b54:	9f ef       	ldi	r25, 0xFF	; 255
    1b56:	dc 01       	movw	r26, r24
    1b58:	80 93 1f 02 	sts	0x021F, r24
    1b5c:	90 93 20 02 	sts	0x0220, r25
    1b60:	a0 93 21 02 	sts	0x0221, r26
    1b64:	b0 93 22 02 	sts	0x0222, r27
    1b68:	5d c0       	rjmp	.+186    	; 0x1c24 <main+0xd90>
    1b6a:	da 01       	movw	r26, r20
    1b6c:	c9 01       	movw	r24, r18
    1b6e:	8a 5a       	subi	r24, 0xAA	; 170
    1b70:	9e 4f       	sbci	r25, 0xFE	; 254
    1b72:	af 4f       	sbci	r26, 0xFF	; 255
    1b74:	bf 4f       	sbci	r27, 0xFF	; 255
    1b76:	80 93 1f 02 	sts	0x021F, r24
    1b7a:	90 93 20 02 	sts	0x0220, r25
    1b7e:	a0 93 21 02 	sts	0x0221, r26
    1b82:	b0 93 22 02 	sts	0x0222, r27
    1b86:	40 92 1b 02 	sts	0x021B, r4
    1b8a:	60 c0       	rjmp	.+192    	; 0x1c4c <main+0xdb8>
    1b8c:	80 91 1b 02 	lds	r24, 0x021B
    1b90:	88 23       	and	r24, r24
    1b92:	21 f0       	breq	.+8      	; 0x1b9c <main+0xd08>
    1b94:	8a 30       	cpi	r24, 0x0A	; 10
    1b96:	09 f0       	breq	.+2      	; 0x1b9a <main+0xd06>
    1b98:	48 c0       	rjmp	.+144    	; 0x1c2a <main+0xd96>
    1b9a:	27 c0       	rjmp	.+78     	; 0x1bea <main+0xd56>
    1b9c:	c3 98       	cbi	0x18, 3	; 24
    1b9e:	80 91 8d 00 	lds	r24, 0x008D
    1ba2:	8f 5f       	subi	r24, 0xFF	; 255
    1ba4:	80 93 8d 00 	sts	0x008D, r24
    1ba8:	88 30       	cpi	r24, 0x08	; 8
    1baa:	10 f0       	brcs	.+4      	; 0x1bb0 <main+0xd1c>
    1bac:	10 92 8d 00 	sts	0x008D, r1
    1bb0:	20 91 14 02 	lds	r18, 0x0214
    1bb4:	30 91 15 02 	lds	r19, 0x0215
    1bb8:	40 91 16 02 	lds	r20, 0x0216
    1bbc:	50 91 17 02 	lds	r21, 0x0217
    1bc0:	80 91 86 00 	lds	r24, 0x0086
    1bc4:	90 91 87 00 	lds	r25, 0x0087
    1bc8:	a0 91 88 00 	lds	r26, 0x0088
    1bcc:	b0 91 89 00 	lds	r27, 0x0089
    1bd0:	28 0f       	add	r18, r24
    1bd2:	39 1f       	adc	r19, r25
    1bd4:	4a 1f       	adc	r20, r26
    1bd6:	5b 1f       	adc	r21, r27
    1bd8:	20 93 1f 02 	sts	0x021F, r18
    1bdc:	30 93 20 02 	sts	0x0220, r19
    1be0:	40 93 21 02 	sts	0x0221, r20
    1be4:	50 93 22 02 	sts	0x0222, r21
    1be8:	20 c0       	rjmp	.+64     	; 0x1c2a <main+0xd96>
    1bea:	c3 9a       	sbi	0x18, 3	; 24
    1bec:	e0 91 8d 00 	lds	r30, 0x008D
    1bf0:	f0 e0       	ldi	r31, 0x00	; 0
    1bf2:	e4 58       	subi	r30, 0x84	; 132
    1bf4:	ff 4f       	sbci	r31, 0xFF	; 255
    1bf6:	80 81       	ld	r24, Z
    1bf8:	8b bd       	out	0x2b, r24	; 43
    1bfa:	20 91 86 00 	lds	r18, 0x0086
    1bfe:	30 91 87 00 	lds	r19, 0x0087
    1c02:	40 91 88 00 	lds	r20, 0x0088
    1c06:	50 91 89 00 	lds	r21, 0x0089
    1c0a:	80 91 1f 02 	lds	r24, 0x021F
    1c0e:	90 91 20 02 	lds	r25, 0x0220
    1c12:	a0 91 21 02 	lds	r26, 0x0221
    1c16:	b0 91 22 02 	lds	r27, 0x0222
    1c1a:	82 17       	cp	r24, r18
    1c1c:	93 07       	cpc	r25, r19
    1c1e:	a4 07       	cpc	r26, r20
    1c20:	b5 07       	cpc	r27, r21
    1c22:	a0 f4       	brcc	.+40     	; 0x1c4c <main+0xdb8>
    1c24:	10 92 1b 02 	sts	0x021B, r1
    1c28:	11 c0       	rjmp	.+34     	; 0x1c4c <main+0xdb8>
    1c2a:	30 92 1b 02 	sts	0x021B, r3
    1c2e:	0e c0       	rjmp	.+28     	; 0x1c4c <main+0xdb8>
    1c30:	10 92 18 02 	sts	0x0218, r1
    1c34:	8c ed       	ldi	r24, 0xDC	; 220
    1c36:	95 e0       	ldi	r25, 0x05	; 5
    1c38:	a0 e0       	ldi	r26, 0x00	; 0
    1c3a:	b0 e0       	ldi	r27, 0x00	; 0
    1c3c:	80 93 14 02 	sts	0x0214, r24
    1c40:	90 93 15 02 	sts	0x0215, r25
    1c44:	a0 93 16 02 	sts	0x0216, r26
    1c48:	b0 93 17 02 	sts	0x0217, r27
    1c4c:	a8 95       	wdr
    1c4e:	56 d3       	rcall	.+1708   	; 0x22fc <__data_load_end+0x4e6>
    1c50:	cf c9       	rjmp	.-3170   	; 0xff0 <main+0x15c>

00001c52 <__mulhi3>:
    1c52:	55 27       	eor	r21, r21
    1c54:	00 24       	eor	r0, r0

00001c56 <__mulhi3_loop>:
    1c56:	80 ff       	sbrs	r24, 0
    1c58:	02 c0       	rjmp	.+4      	; 0x1c5e <__mulhi3_skip1>
    1c5a:	06 0e       	add	r0, r22
    1c5c:	57 1f       	adc	r21, r23

00001c5e <__mulhi3_skip1>:
    1c5e:	66 0f       	add	r22, r22
    1c60:	77 1f       	adc	r23, r23
    1c62:	61 15       	cp	r22, r1
    1c64:	71 05       	cpc	r23, r1
    1c66:	21 f0       	breq	.+8      	; 0x1c70 <__mulhi3_exit>
    1c68:	96 95       	lsr	r25
    1c6a:	87 95       	ror	r24
    1c6c:	00 97       	sbiw	r24, 0x00	; 0
    1c6e:	99 f7       	brne	.-26     	; 0x1c56 <__mulhi3_loop>

00001c70 <__mulhi3_exit>:
    1c70:	95 2f       	mov	r25, r21
    1c72:	80 2d       	mov	r24, r0
    1c74:	08 95       	ret

00001c76 <__mulsi3>:
    1c76:	ff 27       	eor	r31, r31
    1c78:	ee 27       	eor	r30, r30
    1c7a:	bb 27       	eor	r27, r27
    1c7c:	aa 27       	eor	r26, r26

00001c7e <__mulsi3_loop>:
    1c7e:	60 ff       	sbrs	r22, 0
    1c80:	04 c0       	rjmp	.+8      	; 0x1c8a <__mulsi3_skip1>
    1c82:	a2 0f       	add	r26, r18
    1c84:	b3 1f       	adc	r27, r19
    1c86:	e4 1f       	adc	r30, r20
    1c88:	f5 1f       	adc	r31, r21

00001c8a <__mulsi3_skip1>:
    1c8a:	22 0f       	add	r18, r18
    1c8c:	33 1f       	adc	r19, r19
    1c8e:	44 1f       	adc	r20, r20
    1c90:	55 1f       	adc	r21, r21
    1c92:	96 95       	lsr	r25
    1c94:	87 95       	ror	r24
    1c96:	77 95       	ror	r23
    1c98:	67 95       	ror	r22
    1c9a:	89 f7       	brne	.-30     	; 0x1c7e <__mulsi3_loop>
    1c9c:	00 97       	sbiw	r24, 0x00	; 0
    1c9e:	76 07       	cpc	r23, r22
    1ca0:	71 f7       	brne	.-36     	; 0x1c7e <__mulsi3_loop>

00001ca2 <__mulsi3_exit>:
    1ca2:	cf 01       	movw	r24, r30
    1ca4:	bd 01       	movw	r22, r26
    1ca6:	08 95       	ret

00001ca8 <__udivmodhi4>:
    1ca8:	aa 1b       	sub	r26, r26
    1caa:	bb 1b       	sub	r27, r27
    1cac:	51 e1       	ldi	r21, 0x11	; 17
    1cae:	07 c0       	rjmp	.+14     	; 0x1cbe <__udivmodhi4_ep>

00001cb0 <__udivmodhi4_loop>:
    1cb0:	aa 1f       	adc	r26, r26
    1cb2:	bb 1f       	adc	r27, r27
    1cb4:	a6 17       	cp	r26, r22
    1cb6:	b7 07       	cpc	r27, r23
    1cb8:	10 f0       	brcs	.+4      	; 0x1cbe <__udivmodhi4_ep>
    1cba:	a6 1b       	sub	r26, r22
    1cbc:	b7 0b       	sbc	r27, r23

00001cbe <__udivmodhi4_ep>:
    1cbe:	88 1f       	adc	r24, r24
    1cc0:	99 1f       	adc	r25, r25
    1cc2:	5a 95       	dec	r21
    1cc4:	a9 f7       	brne	.-22     	; 0x1cb0 <__udivmodhi4_loop>
    1cc6:	80 95       	com	r24
    1cc8:	90 95       	com	r25
    1cca:	bc 01       	movw	r22, r24
    1ccc:	cd 01       	movw	r24, r26
    1cce:	08 95       	ret

00001cd0 <__udivmodsi4>:
    1cd0:	a1 e2       	ldi	r26, 0x21	; 33
    1cd2:	1a 2e       	mov	r1, r26
    1cd4:	aa 1b       	sub	r26, r26
    1cd6:	bb 1b       	sub	r27, r27
    1cd8:	fd 01       	movw	r30, r26
    1cda:	0d c0       	rjmp	.+26     	; 0x1cf6 <__udivmodsi4_ep>

00001cdc <__udivmodsi4_loop>:
    1cdc:	aa 1f       	adc	r26, r26
    1cde:	bb 1f       	adc	r27, r27
    1ce0:	ee 1f       	adc	r30, r30
    1ce2:	ff 1f       	adc	r31, r31
    1ce4:	a2 17       	cp	r26, r18
    1ce6:	b3 07       	cpc	r27, r19
    1ce8:	e4 07       	cpc	r30, r20
    1cea:	f5 07       	cpc	r31, r21
    1cec:	20 f0       	brcs	.+8      	; 0x1cf6 <__udivmodsi4_ep>
    1cee:	a2 1b       	sub	r26, r18
    1cf0:	b3 0b       	sbc	r27, r19
    1cf2:	e4 0b       	sbc	r30, r20
    1cf4:	f5 0b       	sbc	r31, r21

00001cf6 <__udivmodsi4_ep>:
    1cf6:	66 1f       	adc	r22, r22
    1cf8:	77 1f       	adc	r23, r23
    1cfa:	88 1f       	adc	r24, r24
    1cfc:	99 1f       	adc	r25, r25
    1cfe:	1a 94       	dec	r1
    1d00:	69 f7       	brne	.-38     	; 0x1cdc <__udivmodsi4_loop>
    1d02:	60 95       	com	r22
    1d04:	70 95       	com	r23
    1d06:	80 95       	com	r24
    1d08:	90 95       	com	r25
    1d0a:	9b 01       	movw	r18, r22
    1d0c:	ac 01       	movw	r20, r24
    1d0e:	bd 01       	movw	r22, r26
    1d10:	cf 01       	movw	r24, r30
    1d12:	08 95       	ret

00001d14 <atoi>:
    1d14:	fc 01       	movw	r30, r24
    1d16:	88 27       	eor	r24, r24
    1d18:	99 27       	eor	r25, r25
    1d1a:	e8 94       	clt
    1d1c:	21 91       	ld	r18, Z+
    1d1e:	20 32       	cpi	r18, 0x20	; 32
    1d20:	e9 f3       	breq	.-6      	; 0x1d1c <atoi+0x8>
    1d22:	29 30       	cpi	r18, 0x09	; 9
    1d24:	10 f0       	brcs	.+4      	; 0x1d2a <atoi+0x16>
    1d26:	2e 30       	cpi	r18, 0x0E	; 14
    1d28:	c8 f3       	brcs	.-14     	; 0x1d1c <atoi+0x8>
    1d2a:	2b 32       	cpi	r18, 0x2B	; 43
    1d2c:	39 f0       	breq	.+14     	; 0x1d3c <atoi+0x28>
    1d2e:	2d 32       	cpi	r18, 0x2D	; 45
    1d30:	31 f4       	brne	.+12     	; 0x1d3e <atoi+0x2a>
    1d32:	68 94       	set
    1d34:	03 c0       	rjmp	.+6      	; 0x1d3c <atoi+0x28>
    1d36:	1a d0       	rcall	.+52     	; 0x1d6c <__mulhi_const_10>
    1d38:	82 0f       	add	r24, r18
    1d3a:	91 1d       	adc	r25, r1
    1d3c:	21 91       	ld	r18, Z+
    1d3e:	20 53       	subi	r18, 0x30	; 48
    1d40:	2a 30       	cpi	r18, 0x0A	; 10
    1d42:	c8 f3       	brcs	.-14     	; 0x1d36 <atoi+0x22>
    1d44:	1e f4       	brtc	.+6      	; 0x1d4c <atoi+0x38>
    1d46:	90 95       	com	r25
    1d48:	81 95       	neg	r24
    1d4a:	9f 4f       	sbci	r25, 0xFF	; 255
    1d4c:	08 95       	ret

00001d4e <strncpy>:
    1d4e:	fb 01       	movw	r30, r22
    1d50:	dc 01       	movw	r26, r24
    1d52:	41 50       	subi	r20, 0x01	; 1
    1d54:	50 40       	sbci	r21, 0x00	; 0
    1d56:	48 f0       	brcs	.+18     	; 0x1d6a <strncpy+0x1c>
    1d58:	01 90       	ld	r0, Z+
    1d5a:	0d 92       	st	X+, r0
    1d5c:	00 20       	and	r0, r0
    1d5e:	c9 f7       	brne	.-14     	; 0x1d52 <strncpy+0x4>
    1d60:	01 c0       	rjmp	.+2      	; 0x1d64 <strncpy+0x16>
    1d62:	1d 92       	st	X+, r1
    1d64:	41 50       	subi	r20, 0x01	; 1
    1d66:	50 40       	sbci	r21, 0x00	; 0
    1d68:	e0 f7       	brcc	.-8      	; 0x1d62 <strncpy+0x14>
    1d6a:	08 95       	ret

00001d6c <__mulhi_const_10>:
    1d6c:	bc 01       	movw	r22, r24
    1d6e:	88 0f       	add	r24, r24
    1d70:	99 1f       	adc	r25, r25
    1d72:	88 0f       	add	r24, r24
    1d74:	99 1f       	adc	r25, r25
    1d76:	86 0f       	add	r24, r22
    1d78:	97 1f       	adc	r25, r23
    1d7a:	88 0f       	add	r24, r24
    1d7c:	99 1f       	adc	r25, r25
    1d7e:	08 95       	ret

00001d80 <__eerd_block_tn85>:
    1d80:	dc 01       	movw	r26, r24
    1d82:	cb 01       	movw	r24, r22

00001d84 <__eerd_blraw_tn85>:
    1d84:	fc 01       	movw	r30, r24
    1d86:	e1 99       	sbic	0x1c, 1	; 28
    1d88:	fe cf       	rjmp	.-4      	; 0x1d86 <__eerd_blraw_tn85+0x2>
    1d8a:	06 c0       	rjmp	.+12     	; 0x1d98 <__eerd_blraw_tn85+0x14>
    1d8c:	ff bb       	out	0x1f, r31	; 31
    1d8e:	ee bb       	out	0x1e, r30	; 30
    1d90:	e0 9a       	sbi	0x1c, 0	; 28
    1d92:	31 96       	adiw	r30, 0x01	; 1
    1d94:	0d b2       	in	r0, 0x1d	; 29
    1d96:	0d 92       	st	X+, r0
    1d98:	41 50       	subi	r20, 0x01	; 1
    1d9a:	50 40       	sbci	r21, 0x00	; 0
    1d9c:	b8 f7       	brcc	.-18     	; 0x1d8c <__eerd_blraw_tn85+0x8>
    1d9e:	08 95       	ret

00001da0 <__eerd_byte_tn85>:
    1da0:	e1 99       	sbic	0x1c, 1	; 28
    1da2:	fe cf       	rjmp	.-4      	; 0x1da0 <__eerd_byte_tn85>
    1da4:	9f bb       	out	0x1f, r25	; 31
    1da6:	8e bb       	out	0x1e, r24	; 30
    1da8:	e0 9a       	sbi	0x1c, 0	; 28
    1daa:	99 27       	eor	r25, r25
    1dac:	8d b3       	in	r24, 0x1d	; 29
    1dae:	08 95       	ret

00001db0 <__eerd_word_tn85>:
    1db0:	a8 e1       	ldi	r26, 0x18	; 24
    1db2:	b0 e0       	ldi	r27, 0x00	; 0
    1db4:	42 e0       	ldi	r20, 0x02	; 2
    1db6:	50 e0       	ldi	r21, 0x00	; 0
    1db8:	e5 cf       	rjmp	.-54     	; 0x1d84 <__eerd_blraw_tn85>

00001dba <__eewr_block_tn85>:
    1dba:	dc 01       	movw	r26, r24
    1dbc:	cb 01       	movw	r24, r22
    1dbe:	02 c0       	rjmp	.+4      	; 0x1dc4 <__eewr_block_tn85+0xa>
    1dc0:	2d 91       	ld	r18, X+
    1dc2:	05 d0       	rcall	.+10     	; 0x1dce <__eewr_r18_tn85>
    1dc4:	41 50       	subi	r20, 0x01	; 1
    1dc6:	50 40       	sbci	r21, 0x00	; 0
    1dc8:	d8 f7       	brcc	.-10     	; 0x1dc0 <__eewr_block_tn85+0x6>
    1dca:	08 95       	ret

00001dcc <__eewr_byte_tn85>:
    1dcc:	26 2f       	mov	r18, r22

00001dce <__eewr_r18_tn85>:
    1dce:	e1 99       	sbic	0x1c, 1	; 28
    1dd0:	fe cf       	rjmp	.-4      	; 0x1dce <__eewr_r18_tn85>
    1dd2:	1c ba       	out	0x1c, r1	; 28
    1dd4:	9f bb       	out	0x1f, r25	; 31
    1dd6:	8e bb       	out	0x1e, r24	; 30
    1dd8:	2d bb       	out	0x1d, r18	; 29
    1dda:	0f b6       	in	r0, 0x3f	; 63
    1ddc:	f8 94       	cli
    1dde:	e2 9a       	sbi	0x1c, 2	; 28
    1de0:	e1 9a       	sbi	0x1c, 1	; 28
    1de2:	0f be       	out	0x3f, r0	; 63
    1de4:	01 96       	adiw	r24, 0x01	; 1
    1de6:	08 95       	ret

00001de8 <__eewr_word_tn85>:
    1de8:	f1 df       	rcall	.-30     	; 0x1dcc <__eewr_byte_tn85>
    1dea:	27 2f       	mov	r18, r23
    1dec:	f0 cf       	rjmp	.-32     	; 0x1dce <__eewr_r18_tn85>

00001dee <_exit>:
    1dee:	f8 94       	cli

00001df0 <__stop_program>:
    1df0:	ff cf       	rjmp	.-2      	; 0x1df0 <__stop_program>
